ASxxxx Linker V03.00 + NoICE + sdld,  page 1.
Hexadecimal  [32-Bits]

Area                                    Addr        Size        Decimal Bytes (Attributes)
--------------------------------        ----        ----        ------- ----- ------------
CABS                                00000000    00000000 =           0. bytes (ABS,CON,CODE)

      Value  Global                              Global Defined In Module
      -----  --------------------------------   ------------------------
C:   00000000  l_BIT_BANK                      
C:   00000000  l_CABS                          
C:   00000000  l_GSINIT1                       
C:   00000000  l_GSINIT5                       
C:   00000000  l_IABS                          
C:   00000000  l_PSEG                          
C:   00000000  l_REG_BANK_1                    
C:   00000000  l_REG_BANK_2                    
C:   00000000  l_REG_BANK_3                    
C:   00000000  l_RSEG                          
C:   00000000  l_RSEG0                         
C:   00000000  l_RSEG1                         
C:   00000000  l_XABS                          
C:   00000000  l_XINIT                         
C:   00000000  l_XISEG                         
C:   00000000  l_XSEG                          
C:   00000000  l__CODE                         
C:   00000000  s_BSEG                          
C:   00000000  s_CABS                          
C:   00000000  s_DSEG                          
C:   00000000  s_HOME                          
C:   00000000  s_IABS                          
C:   00000000  s_REG_BANK_0                    
C:   00000000  s_RSEG                          
C:   00000000  s_RSEG0                         
C:   00000000  s_RSEG1                         
C:   00000000  s_XABS                          
C:   00000001  l_BSEG_BYTES                    
C:   00000001  s_PSEG                          
C:   00000001  s_XISEG                         
C:   00000001  s_XSEG                          
C:   00000003  l_GSFINAL                       
C:   00000003  l_GSINIT0                       
C:   00000004  l_GSINIT                        
C:   00000004  l_OSEG                          
C:   00000005  l_BSEG                          
C:   00000006  l_HOME                          
C:   00000006  l_ISEG                          
C:   00000006  s_GSINIT0                       
C:   00000008  l_REG_BANK_0                    
C:   00000008  s_REG_BANK_1                    
C:   00000009  s_GSINIT1                       
C:   00000009  s_GSINIT2                       
C:   0000000A  l_GSINIT2                       
C:   00000010  s_REG_BANK_2                    
C:   00000013  s_GSINIT3                       
C:   00000018  s_BIT_BANK                      
C:   00000018  s_REG_BANK_3                    
C:   00000020  l_CONST                         
C:   00000020  s_BSEG_BYTES                    
ASxxxx Linker V03.00 + NoICE + sdld,  page 2.
Hexadecimal  [32-Bits]

Area                                    Addr        Size        Decimal Bytes (Attributes)
--------------------------------        ----        ----        ------- ----- ------------
CABS                                00000000    00000000 =           0. bytes (ABS,CON,CODE)

      Value  Global                              Global Defined In Module
      -----  --------------------------------   ------------------------
C:   00000020  s__CODE                         
C:   00000022  l_GSINIT3                       
C:   0000002A  l_GSINIT4                       
C:   00000035  s_GSINIT4                       
C:   0000005D  s_OSEG                          
C:   0000005F  s_GSINIT                        
C:   0000005F  s_GSINIT5                       
C:   00000061  s_ISEG                          
C:   00000063  s_GSFINAL                       
C:   00000066  s_CSEG                          
C:   00000067  s_SSEG                          
C:   00000080  l_DSEG                          
C:   00000099  l_SSEG                          
C:   00000100  l_IRAM                          
C:   0000151F  l_CSEG                          
C:   00001585  s_CONST                         
C:   000015A5  s_XINIT                         

ASxxxx Linker V03.00 + NoICE + sdld,  page 3.
Hexadecimal  [32-Bits]

Area                                    Addr        Size        Decimal Bytes (Attributes)
--------------------------------        ----        ----        ------- ----- ------------
.  .ABS.                            00000000    00000000 =           0. bytes (ABS,CON)

      Value  Global                              Global Defined In Module
      -----  --------------------------------   ------------------------
     00000000  .__.ABS.                           _bp
     00000080  G$MOSI$0_0$0                       ADC_simple
     00000080  G$P0$0_0$0                         ADC_simple
     00000080  G$P00$0_0$0                        ADC_simple
     00000080  _MOSI                              ADC_simple
     00000080  _P0                                ADC_simple
     00000080  _P00                               ADC_simple
     00000081  G$MISO$0_0$0                       ADC_simple
     00000081  G$P01$0_0$0                        ADC_simple
     00000081  G$SP$0_0$0                         ADC_simple
     00000081  _MISO                              ADC_simple
     00000081  _P01                               ADC_simple
     00000081  _SP                                ADC_simple
     00000082  G$DPL$0_0$0                        ADC_simple
     00000082  G$P02$0_0$0                        ADC_simple
     00000082  G$RXD_1$0_0$0                      ADC_simple
     00000082  _DPL                               ADC_simple
     00000082  _P02                               ADC_simple
     00000082  _RXD_1                             ADC_simple
     00000083  G$DPH$0_0$0                        ADC_simple
     00000083  G$P03$0_0$0                        ADC_simple
     00000083  _DPH                               ADC_simple
     00000083  _P03                               ADC_simple
     00000084  G$ADCBAL$0_0$0                     ADC_simple
     00000084  G$P04$0_0$0                        ADC_simple
     00000084  G$RCTRIM0$0_0$0                    ADC_simple
     00000084  G$STADC$0_0$0                      ADC_simple
     00000084  _ADCBAL                            ADC_simple
     00000084  _P04                               ADC_simple
     00000084  _RCTRIM0                           ADC_simple
     00000084  _STADC                             ADC_simple
     00000085  G$ADCBAH$0_0$0                     ADC_simple
     00000085  G$P05$0_0$0                        ADC_simple
     00000085  G$RCTRIM1$0_0$0                    ADC_simple
     00000085  _ADCBAH                            ADC_simple
     00000085  _P05                               ADC_simple
     00000085  _RCTRIM1                           ADC_simple
     00000086  G$ADCCON3$0_0$0                    ADC_simple
     00000086  G$P06$0_0$0                        ADC_simple
     00000086  G$RWKL$0_0$0                       ADC_simple
     00000086  G$TXD$0_0$0                        ADC_simple
     00000086  _ADCCON3                           ADC_simple
     00000086  _P06                               ADC_simple
     00000086  _RWKL                              ADC_simple
     00000086  _TXD                               ADC_simple
     00000087  G$P07$0_0$0                        ADC_simple
     00000087  G$PCON$0_0$0                       ADC_simple
     00000087  G$RXD$0_0$0                        ADC_simple
     00000087  _P07                               ADC_simple
     00000087  _PCON                              ADC_simple
ASxxxx Linker V03.00 + NoICE + sdld,  page 4.
Hexadecimal  [32-Bits]

Area                                    Addr        Size        Decimal Bytes (Attributes)
--------------------------------        ----        ----        ------- ----- ------------
.  .ABS.                            00000000    00000000 =           0. bytes (ABS,CON)

      Value  Global                              Global Defined In Module
      -----  --------------------------------   ------------------------
     00000087  _RXD                               ADC_simple
     00000088  G$IT0$0_0$0                        ADC_simple
     00000088  G$TCON$0_0$0                       ADC_simple
     00000088  _IT0                               ADC_simple
     00000088  _TCON                              ADC_simple
     00000089  G$IE0$0_0$0                        ADC_simple
     00000089  G$P2M1$0_0$0                       ADC_simple
     00000089  G$TMOD$0_0$0                       ADC_simple
     00000089  _IE0                               ADC_simple
     00000089  _P2M1                              ADC_simple
     00000089  _TMOD                              ADC_simple
     0000008A  G$IT1$0_0$0                        ADC_simple
     0000008A  G$P2M2$0_0$0                       ADC_simple
     0000008A  G$TL0$0_0$0                        ADC_simple
     0000008A  _IT1                               ADC_simple
     0000008A  _P2M2                              ADC_simple
     0000008A  _TL0                               ADC_simple
     0000008B  G$IE1$0_0$0                        ADC_simple
     0000008B  G$P2SR$0_0$0                       ADC_simple
     0000008B  G$TL1$0_0$0                        ADC_simple
     0000008B  _IE1                               ADC_simple
     0000008B  _P2SR                              ADC_simple
     0000008B  _TL1                               ADC_simple
     0000008C  G$P2S$0_0$0                        ADC_simple
     0000008C  G$TH0$0_0$0                        ADC_simple
     0000008C  G$TR0$0_0$0                        ADC_simple
     0000008C  _P2S                               ADC_simple
     0000008C  _TH0                               ADC_simple
     0000008C  _TR0                               ADC_simple
     0000008D  G$ADCSN$0_0$0                      ADC_simple
     0000008D  G$TF0$0_0$0                        ADC_simple
     0000008D  G$TH1$0_0$0                        ADC_simple
     0000008D  _ADCSN                             ADC_simple
     0000008D  _TF0                               ADC_simple
     0000008D  _TH1                               ADC_simple
     0000008E  G$ADCCN$0_0$0                      ADC_simple
     0000008E  G$CKCON$0_0$0                      ADC_simple
     0000008E  G$TR1$0_0$0                        ADC_simple
     0000008E  _ADCCN                             ADC_simple
     0000008E  _CKCON                             ADC_simple
     0000008E  _TR1                               ADC_simple
     0000008F  G$ADCSR$0_0$0                      ADC_simple
     0000008F  G$TF1$0_0$0                        ADC_simple
     0000008F  G$WKCON$0_0$0                      ADC_simple
     0000008F  _ADCSR                             ADC_simple
     0000008F  _TF1                               ADC_simple
     0000008F  _WKCON                             ADC_simple
     00000090  G$P1$0_0$0                         ADC_simple
     00000090  G$P10$0_0$0                        ADC_simple
     00000090  _P1                                ADC_simple
     00000090  _P10                               ADC_simple
ASxxxx Linker V03.00 + NoICE + sdld,  page 5.
Hexadecimal  [32-Bits]

Area                                    Addr        Size        Decimal Bytes (Attributes)
--------------------------------        ----        ----        ------- ----- ------------
.  .ABS.                            00000000    00000000 =           0. bytes (ABS,CON)

      Value  Global                              Global Defined In Module
      -----  --------------------------------   ------------------------
     00000091  G$P11$0_0$0                        ADC_simple
     00000091  G$SFRS$0_0$0                       ADC_simple
     00000091  _P11                               ADC_simple
     00000091  _SFRS                              ADC_simple
     00000092  G$CAPCON0$0_0$0                    ADC_simple
     00000092  G$P0UP$0_0$0                       ADC_simple
     00000092  G$P12$0_0$0                        ADC_simple
     00000092  _CAPCON0                           ADC_simple
     00000092  _P0UP                              ADC_simple
     00000092  _P12                               ADC_simple
     00000093  G$CAPCON1$0_0$0                    ADC_simple
     00000093  G$P13$0_0$0                        ADC_simple
     00000093  G$P1UP$0_0$0                       ADC_simple
     00000093  G$SCL$0_0$0                        ADC_simple
     00000093  _CAPCON1                           ADC_simple
     00000093  _P13                               ADC_simple
     00000093  _P1UP                              ADC_simple
     00000093  _SCL                               ADC_simple
     00000094  G$CAPCON2$0_0$0                    ADC_simple
     00000094  G$P14$0_0$0                        ADC_simple
     00000094  G$P2UP$0_0$0                       ADC_simple
     00000094  G$SDA$0_0$0                        ADC_simple
     00000094  _CAPCON2                           ADC_simple
     00000094  _P14                               ADC_simple
     00000094  _P2UP                              ADC_simple
     00000094  _SDA                               ADC_simple
     00000095  G$CKDIV$0_0$0                      ADC_simple
     00000095  G$P15$0_0$0                        ADC_simple
     00000095  G$P3UP$0_0$0                       ADC_simple
     00000095  _CKDIV                             ADC_simple
     00000095  _P15                               ADC_simple
     00000095  _P3UP                              ADC_simple
     00000096  G$CKSWT$0_0$0                      ADC_simple
     00000096  G$P16$0_0$0                        ADC_simple
     00000096  G$TXD_1$0_0$0                      ADC_simple
     00000096  _CKSWT                             ADC_simple
     00000096  _P16                               ADC_simple
     00000096  _TXD_1                             ADC_simple
     00000097  G$CKEN$0_0$0                       ADC_simple
     00000097  G$P17$0_0$0                        ADC_simple
     00000097  G$RWKH$0_0$0                       ADC_simple
     00000097  _CKEN                              ADC_simple
     00000097  _P17                               ADC_simple
     00000097  _RWKH                              ADC_simple
     00000098  G$RI$0_0$0                         ADC_simple
     00000098  G$SCON$0_0$0                       ADC_simple
     00000098  _RI                                ADC_simple
     00000098  _SCON                              ADC_simple
     00000099  G$AINDIDS1$0_0$0                   ADC_simple
     00000099  G$SBUF$0_0$0                       ADC_simple
     00000099  G$TI$0_0$0                         ADC_simple
ASxxxx Linker V03.00 + NoICE + sdld,  page 6.
Hexadecimal  [32-Bits]

Area                                    Addr        Size        Decimal Bytes (Attributes)
--------------------------------        ----        ----        ------- ----- ------------
.  .ABS.                            00000000    00000000 =           0. bytes (ABS,CON)

      Value  Global                              Global Defined In Module
      -----  --------------------------------   ------------------------
     00000099  _AINDIDS1                          ADC_simple
     00000099  _SBUF                              ADC_simple
     00000099  _TI                                ADC_simple
     0000009A  G$P0DW$0_0$0                       ADC_simple
     0000009A  G$RB8$0_0$0                        ADC_simple
     0000009A  G$SBUF_1$0_0$0                     ADC_simple
     0000009A  _P0DW                              ADC_simple
     0000009A  _RB8                               ADC_simple
     0000009A  _SBUF_1                            ADC_simple
     0000009B  G$EIE$0_0$0                        ADC_simple
     0000009B  G$P1DW$0_0$0                       ADC_simple
     0000009B  G$TB8$0_0$0                        ADC_simple
     0000009B  _EIE                               ADC_simple
     0000009B  _P1DW                              ADC_simple
     0000009B  _TB8                               ADC_simple
     0000009C  G$EIE1$0_0$0                       ADC_simple
     0000009C  G$P2DW$0_0$0                       ADC_simple
     0000009C  G$REN$0_0$0                        ADC_simple
     0000009C  _EIE1                              ADC_simple
     0000009C  _P2DW                              ADC_simple
     0000009C  _REN                               ADC_simple
     0000009D  G$P3DW$0_0$0                       ADC_simple
     0000009D  G$SM2$0_0$0                        ADC_simple
     0000009D  _P3DW                              ADC_simple
     0000009D  _SM2                               ADC_simple
     0000009E  G$SM1$0_0$0                        ADC_simple
     0000009E  _SM1                               ADC_simple
     0000009F  G$CHPCON$0_0$0                     ADC_simple
     0000009F  G$FE$0_0$0                         ADC_simple
     0000009F  G$SM0$0_0$0                        ADC_simple
     0000009F  _CHPCON                            ADC_simple
     0000009F  _FE                                ADC_simple
     0000009F  _SM0                               ADC_simple
     000000A0  G$P2$0_0$0                         ADC_simple
     000000A0  G$P20$0_0$0                        ADC_simple
     000000A0  _P2                                ADC_simple
     000000A0  _P20                               ADC_simple
     000000A0  __XPAGE                            
     000000A1  G$AUXR2$0_0$0                      ADC_simple
     000000A1  _AUXR2                             ADC_simple
     000000A2  G$AUXR1$0_0$0                      ADC_simple
     000000A2  G$AUXR3$0_0$0                      ADC_simple
     000000A2  _AUXR1                             ADC_simple
     000000A2  _AUXR3                             ADC_simple
     000000A3  G$AUXR4$0_0$0                      ADC_simple
     000000A3  G$BODCON0$0_0$0                    ADC_simple
     000000A3  _AUXR4                             ADC_simple
     000000A3  _BODCON0                           ADC_simple
     000000A4  G$AUXR5$0_0$0                      ADC_simple
     000000A4  G$IAPTRG$0_0$0                     ADC_simple
     000000A4  _AUXR5                             ADC_simple
ASxxxx Linker V03.00 + NoICE + sdld,  page 7.
Hexadecimal  [32-Bits]

Area                                    Addr        Size        Decimal Bytes (Attributes)
--------------------------------        ----        ----        ------- ----- ------------
.  .ABS.                            00000000    00000000 =           0. bytes (ABS,CON)

      Value  Global                              Global Defined In Module
      -----  --------------------------------   ------------------------
     000000A4  _IAPTRG                            ADC_simple
     000000A5  G$AUXR6$0_0$0                      ADC_simple
     000000A5  G$IAPUEN$0_0$0                     ADC_simple
     000000A5  _AUXR6                             ADC_simple
     000000A5  _IAPUEN                            ADC_simple
     000000A6  G$AUXR7$0_0$0                      ADC_simple
     000000A6  G$IAPAL$0_0$0                      ADC_simple
     000000A6  _AUXR7                             ADC_simple
     000000A6  _IAPAL                             ADC_simple
     000000A7  G$AUXR8$0_0$0                      ADC_simple
     000000A7  G$IAPAH$0_0$0                      ADC_simple
     000000A7  _AUXR8                             ADC_simple
     000000A7  _IAPAH                             ADC_simple
     000000A8  G$EX0$0_0$0                        ADC_simple
     000000A8  G$IE$0_0$0                         ADC_simple
     000000A8  _EX0                               ADC_simple
     000000A8  _IE                                ADC_simple
     000000A9  G$ET0$0_0$0                        ADC_simple
     000000A9  G$PWM1PH$0_0$0                     ADC_simple
     000000A9  G$SADDR$0_0$0                      ADC_simple
     000000A9  _ET0                               ADC_simple
     000000A9  _PWM1PH                            ADC_simple
     000000A9  _SADDR                             ADC_simple
     000000AA  G$EX1$0_0$0                        ADC_simple
     000000AA  G$PWM1C0H$0_0$0                    ADC_simple
     000000AA  G$WDCON$0_0$0                      ADC_simple
     000000AA  _EX1                               ADC_simple
     000000AA  _PWM1C0H                           ADC_simple
     000000AA  _WDCON                             ADC_simple
     000000AB  G$BODCON1$0_0$0                    ADC_simple
     000000AB  G$ET1$0_0$0                        ADC_simple
     000000AB  G$PWM1C1H$0_0$0                    ADC_simple
     000000AB  _BODCON1                           ADC_simple
     000000AB  _ET1                               ADC_simple
     000000AB  _PWM1C1H                           ADC_simple
     000000AC  G$ES$0_0$0                         ADC_simple
     000000AC  G$P3M1$0_0$0                       ADC_simple
     000000AC  G$P3S$0_0$0                        ADC_simple
     000000AC  G$PWM1MD$0_0$0                     ADC_simple
     000000AC  _ES                                ADC_simple
     000000AC  _P3M1                              ADC_simple
     000000AC  _P3S                               ADC_simple
     000000AC  _PWM1MD                            ADC_simple
     000000AD  G$EBOD$0_0$0                       ADC_simple
     000000AD  G$P3M2$0_0$0                       ADC_simple
     000000AD  G$P3SR$0_0$0                       ADC_simple
     000000AD  G$PWM1MEN$0_0$0                    ADC_simple
     000000AD  _EBOD                              ADC_simple
     000000AD  _P3M2                              ADC_simple
     000000AD  _P3SR                              ADC_simple
     000000AD  _PWM1MEN                           ADC_simple
ASxxxx Linker V03.00 + NoICE + sdld,  page 8.
Hexadecimal  [32-Bits]

Area                                    Addr        Size        Decimal Bytes (Attributes)
--------------------------------        ----        ----        ------- ----- ------------
.  .ABS.                            00000000    00000000 =           0. bytes (ABS,CON)

      Value  Global                              Global Defined In Module
      -----  --------------------------------   ------------------------
     000000AE  G$EADC$0_0$0                       ADC_simple
     000000AE  G$IAPFD$0_0$0                      ADC_simple
     000000AE  _EADC                              ADC_simple
     000000AE  _IAPFD                             ADC_simple
     000000AF  G$EA$0_0$0                         ADC_simple
     000000AF  G$IAPCN$0_0$0                      ADC_simple
     000000AF  _EA                                ADC_simple
     000000AF  _IAPCN                             ADC_simple
     000000B0  G$P3$0_0$0                         ADC_simple
     000000B0  G$P30$0_0$0                        ADC_simple
     000000B0  _P3                                ADC_simple
     000000B0  _P30                               ADC_simple
     000000B1  G$P0M1$0_0$0                       ADC_simple
     000000B1  G$P0S$0_0$0                        ADC_simple
     000000B1  G$P31$0_0$0                        ADC_simple
     000000B1  G$PWM1PL$0_0$0                     ADC_simple
     000000B1  _P0M1                              ADC_simple
     000000B1  _P0S                               ADC_simple
     000000B1  _P31                               ADC_simple
     000000B1  _PWM1PL                            ADC_simple
     000000B2  G$P0M2$0_0$0                       ADC_simple
     000000B2  G$P0SR$0_0$0                       ADC_simple
     000000B2  G$P32$0_0$0                        ADC_simple
     000000B2  G$PWM1C0L$0_0$0                    ADC_simple
     000000B2  _P0M2                              ADC_simple
     000000B2  _P0SR                              ADC_simple
     000000B2  _P32                               ADC_simple
     000000B2  _PWM1C0L                           ADC_simple
     000000B3  G$P1M1$0_0$0                       ADC_simple
     000000B3  G$P1S$0_0$0                        ADC_simple
     000000B3  G$P33$0_0$0                        ADC_simple
     000000B3  G$PWM1C1L$0_0$0                    ADC_simple
     000000B3  _P1M1                              ADC_simple
     000000B3  _P1S                               ADC_simple
     000000B3  _P33                               ADC_simple
     000000B3  _PWM1C1L                           ADC_simple
     000000B4  G$P1M2$0_0$0                       ADC_simple
     000000B4  G$P1SR$0_0$0                       ADC_simple
     000000B4  G$P34$0_0$0                        ADC_simple
     000000B4  G$PWM1CON0$0_0$0                   ADC_simple
     000000B4  _P1M2                              ADC_simple
     000000B4  _P1SR                              ADC_simple
     000000B4  _P34                               ADC_simple
     000000B4  _PWM1CON0                          ADC_simple
     000000B5  G$P35$0_0$0                        ADC_simple
     000000B5  G$PWM1CON1$0_0$0                   ADC_simple
     000000B5  G$TOE$0_0$0                        ADC_simple
     000000B5  _P35                               ADC_simple
     000000B5  _PWM1CON1                          ADC_simple
     000000B5  _TOE                               ADC_simple
     000000B6  G$P36$0_0$0                        ADC_simple
ASxxxx Linker V03.00 + NoICE + sdld,  page 9.
Hexadecimal  [32-Bits]

Area                                    Addr        Size        Decimal Bytes (Attributes)
--------------------------------        ----        ----        ------- ----- ------------
.  .ABS.                            00000000    00000000 =           0. bytes (ABS,CON)

      Value  Global                              Global Defined In Module
      -----  --------------------------------   ------------------------
     000000B6  G$PWM1INTC$0_0$0                   ADC_simple
     000000B6  _P36                               ADC_simple
     000000B6  _PWM1INTC                          ADC_simple
     000000B7  G$IPH$0_0$0                        ADC_simple
     000000B7  G$P37$0_0$0                        ADC_simple
     000000B7  G$PIOCON2$0_0$0                    ADC_simple
     000000B7  G$PWM0INTC$0_0$0                   ADC_simple
     000000B7  _IPH                               ADC_simple
     000000B7  _P37                               ADC_simple
     000000B7  _PIOCON2                           ADC_simple
     000000B7  _PWM0INTC                          ADC_simple
     000000B8  G$IP$0_0$0                         ADC_simple
     000000B8  G$PX0$0_0$0                        ADC_simple
     000000B8  _IP                                ADC_simple
     000000B8  _PX0                               ADC_simple
     000000B9  G$PT0$0_0$0                        ADC_simple
     000000B9  G$PWM2PH$0_0$0                     ADC_simple
     000000B9  G$SADEN$0_0$0                      ADC_simple
     000000B9  _PT0                               ADC_simple
     000000B9  _PWM2PH                            ADC_simple
     000000B9  _SADEN                             ADC_simple
     000000BA  G$PWM2C0H$0_0$0                    ADC_simple
     000000BA  G$PX1$0_0$0                        ADC_simple
     000000BA  G$SADEN_1$0_0$0                    ADC_simple
     000000BA  _PWM2C0H                           ADC_simple
     000000BA  _PX1                               ADC_simple
     000000BA  _SADEN_1                           ADC_simple
     000000BB  G$PT1$0_0$0                        ADC_simple
     000000BB  G$PWM2C1H$0_0$0                    ADC_simple
     000000BB  G$SADDR_1$0_0$0                    ADC_simple
     000000BB  _PT1                               ADC_simple
     000000BB  _PWM2C1H                           ADC_simple
     000000BB  _SADDR_1                           ADC_simple
     000000BC  G$I2DAT$0_0$0                      ADC_simple
     000000BC  G$PS$0_0$0                         ADC_simple
     000000BC  G$PWM2MD$0_0$0                     ADC_simple
     000000BC  _I2DAT                             ADC_simple
     000000BC  _PS                                ADC_simple
     000000BC  _PWM2MD                            ADC_simple
     000000BD  G$I2STAT$0_0$0                     ADC_simple
     000000BD  G$PBOD$0_0$0                       ADC_simple
     000000BD  G$PWM2MEN$0_0$0                    ADC_simple
     000000BD  _I2STAT                            ADC_simple
     000000BD  _PBOD                              ADC_simple
     000000BD  _PWM2MEN                           ADC_simple
     000000BE  G$I2CLK$0_0$0                      ADC_simple
     000000BE  G$PADC$0_0$0                       ADC_simple
     000000BE  _I2CLK                             ADC_simple
     000000BE  _PADC                              ADC_simple
     000000BF  G$I2TOC$0_0$0                      ADC_simple
     000000BF  _I2TOC                             ADC_simple
ASxxxx Linker V03.00 + NoICE + sdld,  page 10.
Hexadecimal  [32-Bits]

Area                                    Addr        Size        Decimal Bytes (Attributes)
--------------------------------        ----        ----        ------- ----- ------------
.  .ABS.                            00000000    00000000 =           0. bytes (ABS,CON)

      Value  Global                              Global Defined In Module
      -----  --------------------------------   ------------------------
     000000C0  G$I2CON$0_0$0                      ADC_simple
     000000C0  G$I2CPX$0_0$0                      ADC_simple
     000000C0  _I2CON                             ADC_simple
     000000C0  _I2CPX                             ADC_simple
     000000C1  G$I2ADDR$0_0$0                     ADC_simple
     000000C1  G$PWM2PL$0_0$0                     ADC_simple
     000000C1  _I2ADDR                            ADC_simple
     000000C1  _PWM2PL                            ADC_simple
     000000C2  G$AA$0_0$0                         ADC_simple
     000000C2  G$ADCRL$0_0$0                      ADC_simple
     000000C2  G$PWM2C0L$0_0$0                    ADC_simple
     000000C2  _AA                                ADC_simple
     000000C2  _ADCRL                             ADC_simple
     000000C2  _PWM2C0L                           ADC_simple
     000000C3  G$ADCRH$0_0$0                      ADC_simple
     000000C3  G$PWM2C1L$0_0$0                    ADC_simple
     000000C3  G$SI$0_0$0                         ADC_simple
     000000C3  _ADCRH                             ADC_simple
     000000C3  _PWM2C1L                           ADC_simple
     000000C3  _SI                                ADC_simple
     000000C4  G$PWM0C4H$0_0$0                    ADC_simple
     000000C4  G$PWM2CON0$0_0$0                   ADC_simple
     000000C4  G$STO$0_0$0                        ADC_simple
     000000C4  G$T3CON$0_0$0                      ADC_simple
     000000C4  _PWM0C4H                           ADC_simple
     000000C4  _PWM2CON0                          ADC_simple
     000000C4  _STO                               ADC_simple
     000000C4  _T3CON                             ADC_simple
     000000C5  G$PWM0C5H$0_0$0                    ADC_simple
     000000C5  G$PWM2CON1$0_0$0                   ADC_simple
     000000C5  G$RL3$0_0$0                        ADC_simple
     000000C5  G$STA$0_0$0                        ADC_simple
     000000C5  _PWM0C5H                           ADC_simple
     000000C5  _PWM2CON1                          ADC_simple
     000000C5  _RL3                               ADC_simple
     000000C5  _STA                               ADC_simple
     000000C6  G$I2CEN$0_0$0                      ADC_simple
     000000C6  G$PIOCON1$0_0$0                    ADC_simple
     000000C6  G$PWM2INTC$0_0$0                   ADC_simple
     000000C6  G$RH3$0_0$0                        ADC_simple
     000000C6  _I2CEN                             ADC_simple
     000000C6  _PIOCON1                           ADC_simple
     000000C6  _PWM2INTC                          ADC_simple
     000000C6  _RH3                               ADC_simple
     000000C7  G$TA$0_0$0                         ADC_simple
     000000C7  _TA                                ADC_simple
     000000C8  G$CM_RL2$0_0$0                     ADC_simple
     000000C8  G$T2CON$0_0$0                      ADC_simple
     000000C8  _CM_RL2                            ADC_simple
     000000C8  _T2CON                             ADC_simple
     000000C9  G$PWM3PH$0_0$0                     ADC_simple
ASxxxx Linker V03.00 + NoICE + sdld,  page 11.
Hexadecimal  [32-Bits]

Area                                    Addr        Size        Decimal Bytes (Attributes)
--------------------------------        ----        ----        ------- ----- ------------
.  .ABS.                            00000000    00000000 =           0. bytes (ABS,CON)

      Value  Global                              Global Defined In Module
      -----  --------------------------------   ------------------------
     000000C9  G$T2MOD$0_0$0                      ADC_simple
     000000C9  _PWM3PH                            ADC_simple
     000000C9  _T2MOD                             ADC_simple
     000000CA  G$PWM3C0H$0_0$0                    ADC_simple
     000000CA  G$RCMP2L$0_0$0                     ADC_simple
     000000CA  G$TR2$0_0$0                        ADC_simple
     000000CA  _PWM3C0H                           ADC_simple
     000000CA  _RCMP2L                            ADC_simple
     000000CA  _TR2                               ADC_simple
     000000CB  G$PWM3C1H$0_0$0                    ADC_simple
     000000CB  G$RCMP2H$0_0$0                     ADC_simple
     000000CB  _PWM3C1H                           ADC_simple
     000000CB  _RCMP2H                            ADC_simple
     000000CC  G$PWM0C4L$0_0$0                    ADC_simple
     000000CC  G$PWM3MD$0_0$0                     ADC_simple
     000000CC  G$TL2$0_0$0                        ADC_simple
     000000CC  _PWM0C4L                           ADC_simple
     000000CC  _PWM3MD                            ADC_simple
     000000CC  _TL2                               ADC_simple
     000000CD  G$PWM0C5L$0_0$0                    ADC_simple
     000000CD  G$PWM3MEN$0_0$0                    ADC_simple
     000000CD  G$TH2$0_0$0                        ADC_simple
     000000CD  _PWM0C5L                           ADC_simple
     000000CD  _PWM3MEN                           ADC_simple
     000000CD  _TH2                               ADC_simple
     000000CE  G$ADCMPL$0_0$0                     ADC_simple
     000000CE  G$EIP2$0_0$0                       ADC_simple
     000000CE  _ADCMPL                            ADC_simple
     000000CE  _EIP2                              ADC_simple
     000000CF  G$ADCMPH$0_0$0                     ADC_simple
     000000CF  G$EIPH2$0_0$0                      ADC_simple
     000000CF  G$TF2$0_0$0                        ADC_simple
     000000CF  _ADCMPH                            ADC_simple
     000000CF  _EIPH2                             ADC_simple
     000000CF  _TF2                               ADC_simple
     000000D0  G$P$0_0$0                          ADC_simple
     000000D0  G$PSW$0_0$0                        ADC_simple
     000000D0  _P                                 ADC_simple
     000000D0  _PSW                               ADC_simple
     000000D1  G$PWM0PH$0_0$0                     ADC_simple
     000000D1  G$PWM3PL$0_0$0                     ADC_simple
     000000D1  _PWM0PH                            ADC_simple
     000000D1  _PWM3PL                            ADC_simple
     000000D2  G$OV$0_0$0                         ADC_simple
     000000D2  G$PWM0C0H$0_0$0                    ADC_simple
     000000D2  G$PWM3C0L$0_0$0                    ADC_simple
     000000D2  _OV                                ADC_simple
     000000D2  _PWM0C0H                           ADC_simple
     000000D2  _PWM3C0L                           ADC_simple
     000000D3  G$PWM0C1H$0_0$0                    ADC_simple
     000000D3  G$PWM3C1L$0_0$0                    ADC_simple
ASxxxx Linker V03.00 + NoICE + sdld,  page 12.
Hexadecimal  [32-Bits]

Area                                    Addr        Size        Decimal Bytes (Attributes)
--------------------------------        ----        ----        ------- ----- ------------
.  .ABS.                            00000000    00000000 =           0. bytes (ABS,CON)

      Value  Global                              Global Defined In Module
      -----  --------------------------------   ------------------------
     000000D3  G$RS0$0_0$0                        ADC_simple
     000000D3  _PWM0C1H                           ADC_simple
     000000D3  _PWM3C1L                           ADC_simple
     000000D3  _RS0                               ADC_simple
     000000D4  G$PWM0C2H$0_0$0                    ADC_simple
     000000D4  G$PWM3CON0$0_0$0                   ADC_simple
     000000D4  G$RS1$0_0$0                        ADC_simple
     000000D4  _PWM0C2H                           ADC_simple
     000000D4  _PWM3CON0                          ADC_simple
     000000D4  _RS1                               ADC_simple
     000000D5  G$F0$0_0$0                         ADC_simple
     000000D5  G$PWM0C3H$0_0$0                    ADC_simple
     000000D5  G$PWM3CON1$0_0$0                   ADC_simple
     000000D5  _F0                                ADC_simple
     000000D5  _PWM0C3H                           ADC_simple
     000000D5  _PWM3CON1                          ADC_simple
     000000D6  G$AC$0_0$0                         ADC_simple
     000000D6  G$PNP$0_0$0                        ADC_simple
     000000D6  G$PWM3INTC$0_0$0                   ADC_simple
     000000D6  _AC                                ADC_simple
     000000D6  _PNP                               ADC_simple
     000000D6  _PWM3INTC                          ADC_simple
     000000D7  G$CY$0_0$0                         ADC_simple
     000000D7  G$PWM0FBD$0_0$0                    ADC_simple
     000000D7  G$XTLCON$0_0$0                     ADC_simple
     000000D7  _CY                                ADC_simple
     000000D7  _PWM0FBD                           ADC_simple
     000000D7  _XTLCON                            ADC_simple
     000000D8  G$PWM0CON0$0_0$0                   ADC_simple
     000000D8  _PWM0CON0                          ADC_simple
     000000D9  G$PWM0PL$0_0$0                     ADC_simple
     000000D9  G$SC0DR$0_0$0                      ADC_simple
     000000D9  _PWM0PL                            ADC_simple
     000000D9  _SC0DR                             ADC_simple
     000000DA  G$PWM0C0L$0_0$0                    ADC_simple
     000000DA  G$SC0EGT$0_0$0                     ADC_simple
     000000DA  _PWM0C0L                           ADC_simple
     000000DA  _SC0EGT                            ADC_simple
     000000DB  G$PWM0C1L$0_0$0                    ADC_simple
     000000DB  G$SC0ETURD0$0_0$0                  ADC_simple
     000000DB  _PWM0C1L                           ADC_simple
     000000DB  _SC0ETURD0                         ADC_simple
     000000DC  G$CLRPWM$0_0$0                     ADC_simple
     000000DC  G$PWM0C2L$0_0$0                    ADC_simple
     000000DC  G$SC0ETURD1$0_0$0                  ADC_simple
     000000DC  _CLRPWM                            ADC_simple
     000000DC  _PWM0C2L                           ADC_simple
     000000DC  _SC0ETURD1                         ADC_simple
     000000DD  G$PWM0C3L$0_0$0                    ADC_simple
     000000DD  G$PWMF$0_0$0                       ADC_simple
     000000DD  G$SC0IE$0_0$0                      ADC_simple
ASxxxx Linker V03.00 + NoICE + sdld,  page 13.
Hexadecimal  [32-Bits]

Area                                    Addr        Size        Decimal Bytes (Attributes)
--------------------------------        ----        ----        ------- ----- ------------
.  .ABS.                            00000000    00000000 =           0. bytes (ABS,CON)

      Value  Global                              Global Defined In Module
      -----  --------------------------------   ------------------------
     000000DD  _PWM0C3L                           ADC_simple
     000000DD  _PWMF                              ADC_simple
     000000DD  _SC0IE                             ADC_simple
     000000DE  G$LOAD$0_0$0                       ADC_simple
     000000DE  G$PIOCON0$0_0$0                    ADC_simple
     000000DE  G$SC0IS$0_0$0                      ADC_simple
     000000DE  _LOAD                              ADC_simple
     000000DE  _PIOCON0                           ADC_simple
     000000DE  _SC0IS                             ADC_simple
     000000DF  G$PWM0CON1$0_0$0                   ADC_simple
     000000DF  G$PWMRUN$0_0$0                     ADC_simple
     000000DF  G$SC0TSR$0_0$0                     ADC_simple
     000000DF  _PWM0CON1                          ADC_simple
     000000DF  _PWMRUN                            ADC_simple
     000000DF  _SC0TSR                            ADC_simple
     000000E0  G$ACC$0_0$0                        ADC_simple
     000000E0  _ACC                               ADC_simple
     000000E1  G$ADCCON1$0_0$0                    ADC_simple
     000000E1  G$SC1DR$0_0$0                      ADC_simple
     000000E1  _ADCCON1                           ADC_simple
     000000E1  _SC1DR                             ADC_simple
     000000E2  G$ADCCON2$0_0$0                    ADC_simple
     000000E2  G$SC1EGT$0_0$0                     ADC_simple
     000000E2  _ADCCON2                           ADC_simple
     000000E2  _SC1EGT                            ADC_simple
     000000E3  G$ADCDLY$0_0$0                     ADC_simple
     000000E3  G$SC1ETURD0$0_0$0                  ADC_simple
     000000E3  _ADCDLY                            ADC_simple
     000000E3  _SC1ETURD0                         ADC_simple
     000000E4  G$C0L$0_0$0                        ADC_simple
     000000E4  G$SC1ETURD1$0_0$0                  ADC_simple
     000000E4  _C0L                               ADC_simple
     000000E4  _SC1ETURD1                         ADC_simple
     000000E5  G$C0H$0_0$0                        ADC_simple
     000000E5  G$SC1IE$0_0$0                      ADC_simple
     000000E5  _C0H                               ADC_simple
     000000E5  _SC1IE                             ADC_simple
     000000E6  G$C1L$0_0$0                        ADC_simple
     000000E6  G$SC1IS$0_0$0                      ADC_simple
     000000E6  _C1L                               ADC_simple
     000000E6  _SC1IS                             ADC_simple
     000000E7  G$C1H$0_0$0                        ADC_simple
     000000E7  G$SC1TSR$0_0$0                     ADC_simple
     000000E7  _C1H                               ADC_simple
     000000E7  _SC1TSR                            ADC_simple
     000000E8  G$ADCCON0$0_0$0                    ADC_simple
     000000E8  G$ADCHS0$0_0$0                     ADC_simple
     000000E8  _ADCCON0                           ADC_simple
     000000E8  _ADCHS0                            ADC_simple
     000000E9  G$ADCHS1$0_0$0                     ADC_simple
     000000E9  G$PICON$0_0$0                      ADC_simple
ASxxxx Linker V03.00 + NoICE + sdld,  page 14.
Hexadecimal  [32-Bits]

Area                                    Addr        Size        Decimal Bytes (Attributes)
--------------------------------        ----        ----        ------- ----- ------------
.  .ABS.                            00000000    00000000 =           0. bytes (ABS,CON)

      Value  Global                              Global Defined In Module
      -----  --------------------------------   ------------------------
     000000E9  G$SC2DR$0_0$0                      ADC_simple
     000000E9  _ADCHS1                            ADC_simple
     000000E9  _PICON                             ADC_simple
     000000E9  _SC2DR                             ADC_simple
     000000EA  G$ADCHS2$0_0$0                     ADC_simple
     000000EA  G$PINEN$0_0$0                      ADC_simple
     000000EA  G$SC2EGT$0_0$0                     ADC_simple
     000000EA  _ADCHS2                            ADC_simple
     000000EA  _PINEN                             ADC_simple
     000000EA  _SC2EGT                            ADC_simple
     000000EB  G$ADCHS3$0_0$0                     ADC_simple
     000000EB  G$PIPEN$0_0$0                      ADC_simple
     000000EB  G$SC2ETURD0$0_0$0                  ADC_simple
     000000EB  _ADCHS3                            ADC_simple
     000000EB  _PIPEN                             ADC_simple
     000000EB  _SC2ETURD0                         ADC_simple
     000000EC  G$ETGSEL0$0_0$0                    ADC_simple
     000000EC  G$PIF$0_0$0                        ADC_simple
     000000EC  G$SC2ETURD1$0_0$0                  ADC_simple
     000000EC  _ETGSEL0                           ADC_simple
     000000EC  _PIF                               ADC_simple
     000000EC  _SC2ETURD1                         ADC_simple
     000000ED  G$C2L$0_0$0                        ADC_simple
     000000ED  G$ETGSEL1$0_0$0                    ADC_simple
     000000ED  G$SC2IE$0_0$0                      ADC_simple
     000000ED  _C2L                               ADC_simple
     000000ED  _ETGSEL1                           ADC_simple
     000000ED  _SC2IE                             ADC_simple
     000000EE  G$ADCS$0_0$0                       ADC_simple
     000000EE  G$C2H$0_0$0                        ADC_simple
     000000EE  G$SC2IS$0_0$0                      ADC_simple
     000000EE  _ADCS                              ADC_simple
     000000EE  _C2H                               ADC_simple
     000000EE  _SC2IS                             ADC_simple
     000000EF  G$ADCF$0_0$0                       ADC_simple
     000000EF  G$EIP$0_0$0                        ADC_simple
     000000EF  G$SC2TSR$0_0$0                     ADC_simple
     000000EF  _ADCF                              ADC_simple
     000000EF  _EIP                               ADC_simple
     000000EF  _SC2TSR                            ADC_simple
     000000F0  G$B$0_0$0                          ADC_simple
     000000F0  _B                                 ADC_simple
     000000F1  G$CAPCON3$0_0$0                    ADC_simple
     000000F1  G$SC0CR0$0_0$0                     ADC_simple
     000000F1  _CAPCON3                           ADC_simple
     000000F1  _SC0CR0                            ADC_simple
     000000F2  G$CAPCON4$0_0$0                    ADC_simple
     000000F2  G$SC0CR1$0_0$0                     ADC_simple
     000000F2  _CAPCON4                           ADC_simple
     000000F2  _SC0CR1                            ADC_simple
     000000F3  G$SC1CR0$0_0$0                     ADC_simple
ASxxxx Linker V03.00 + NoICE + sdld,  page 15.
Hexadecimal  [32-Bits]

Area                                    Addr        Size        Decimal Bytes (Attributes)
--------------------------------        ----        ----        ------- ----- ------------
.  .ABS.                            00000000    00000000 =           0. bytes (ABS,CON)

      Value  Global                              Global Defined In Module
      -----  --------------------------------   ------------------------
     000000F3  G$SPCR$0_0$0                       ADC_simple
     000000F3  G$SPCR2$0_0$0                      ADC_simple
     000000F3  _SC1CR0                            ADC_simple
     000000F3  _SPCR                              ADC_simple
     000000F3  _SPCR2                             ADC_simple
     000000F4  G$SC1CR1$0_0$0                     ADC_simple
     000000F4  G$SPSR$0_0$0                       ADC_simple
     000000F4  _SC1CR1                            ADC_simple
     000000F4  _SPSR                              ADC_simple
     000000F5  G$SC2CR0$0_0$0                     ADC_simple
     000000F5  G$SPDR$0_0$0                       ADC_simple
     000000F5  _B_5                               _gptrget
     000000F5  _SC2CR0                            ADC_simple
     000000F5  _SPDR                              ADC_simple
     000000F6  G$AINDIDS0$0_0$0                   ADC_simple
     000000F6  G$SC2CR1$0_0$0                     ADC_simple
     000000F6  _AINDIDS0                          ADC_simple
     000000F6  _B_6                               _gptrget
     000000F6  _SC2CR1                            ADC_simple
     000000F7  G$EIPH$0_0$0                       ADC_simple
     000000F7  G$PIPS7$0_0$0                      ADC_simple
     000000F7  _B_7                               _gptrget
     000000F7  _EIPH                              ADC_simple
     000000F7  _PIPS7                             ADC_simple
     000000F8  G$RI_1$0_0$0                       ADC_simple
     000000F8  G$SCON_1$0_0$0                     ADC_simple
     000000F8  _RI_1                              ADC_simple
     000000F8  _SCON_1                            ADC_simple
     000000F9  G$PIPS0$0_0$0                      ADC_simple
     000000F9  G$PWM0DTEN$0_0$0                   ADC_simple
     000000F9  G$TI_1$0_0$0                       ADC_simple
     000000F9  _PIPS0                             ADC_simple
     000000F9  _PWM0DTEN                          ADC_simple
     000000F9  _TI_1                              ADC_simple
     000000FA  G$PIPS1$0_0$0                      ADC_simple
     000000FA  G$PWM0DTCNT$0_0$0                  ADC_simple
     000000FA  G$RB8_1$0_0$0                      ADC_simple
     000000FA  _PIPS1                             ADC_simple
     000000FA  _PWM0DTCNT                         ADC_simple
     000000FA  _RB8_1                             ADC_simple
     000000FB  G$PIPS2$0_0$0                      ADC_simple
     000000FB  G$PWM0MEN$0_0$0                    ADC_simple
     000000FB  G$TB8_1$0_0$0                      ADC_simple
     000000FB  _PIPS2                             ADC_simple
     000000FB  _PWM0MEN                           ADC_simple
     000000FB  _TB8_1                             ADC_simple
     000000FC  G$PIPS3$0_0$0                      ADC_simple
     000000FC  G$PWM0MD$0_0$0                     ADC_simple
     000000FC  G$REN_1$0_0$0                      ADC_simple
     000000FC  _PIPS3                             ADC_simple
     000000FC  _PWM0MD                            ADC_simple
ASxxxx Linker V03.00 + NoICE + sdld,  page 16.
Hexadecimal  [32-Bits]

Area                                    Addr        Size        Decimal Bytes (Attributes)
--------------------------------        ----        ----        ------- ----- ------------
.  .ABS.                            00000000    00000000 =           0. bytes (ABS,CON)

      Value  Global                              Global Defined In Module
      -----  --------------------------------   ------------------------
     000000FC  _REN_1                             ADC_simple
     000000FD  G$PIPS4$0_0$0                      ADC_simple
     000000FD  G$PORDIS$0_0$0                     ADC_simple
     000000FD  G$SM2_1$0_0$0                      ADC_simple
     000000FD  _PIPS4                             ADC_simple
     000000FD  _PORDIS                            ADC_simple
     000000FD  _SM2_1                             ADC_simple
     000000FE  G$EIP1$0_0$0                       ADC_simple
     000000FE  G$PIPS5$0_0$0                      ADC_simple
     000000FE  G$SM1_1$0_0$0                      ADC_simple
     000000FE  _EIP1                              ADC_simple
     000000FE  _PIPS5                             ADC_simple
     000000FE  _SM1_1                             ADC_simple
     000000FF  G$EIPH1$0_0$0                      ADC_simple
     000000FF  G$FE_1$0_0$0                       ADC_simple
     000000FF  G$LVRDIS$0_0$0                     ADC_simple
     000000FF  G$PIPS6$0_0$0                      ADC_simple
     000000FF  G$SM0_1$0_0$0                      ADC_simple
     000000FF  _EIPH1                             ADC_simple
     000000FF  _FE_1                              ADC_simple
     000000FF  _LVRDIS                            ADC_simple
     000000FF  _PIPS6                             ADC_simple
     000000FF  _SM0_1                             ADC_simple

ASxxxx Linker V03.00 + NoICE + sdld,  page 17.
Hexadecimal  [32-Bits]

Area                                    Addr        Size        Decimal Bytes (Attributes)
--------------------------------        ----        ----        ------- ----- ------------
BSEG_BYTES                          00000020    00000001 =           1. bytes (REL,CON)

      Value  Global                              Global Defined In Module
      -----  --------------------------------   ------------------------
ASxxxx Linker V03.00 + NoICE + sdld,  page 18.
Hexadecimal  [32-Bits]

Area                                    Addr        Size        Decimal Bytes (Attributes)
--------------------------------        ----        ----        ------- ----- ------------
REG_BANK_0                          00000000    00000008 =           8. bytes (REL,OVR)

      Value  Global                              Global Defined In Module
      -----  --------------------------------   ------------------------
ASxxxx Linker V03.00 + NoICE + sdld,  page 19.
Hexadecimal  [32-Bits]

Area                                    Addr        Size        Decimal Bytes (Attributes)
--------------------------------        ----        ----        ------- ----- ------------
DSEG                                00000000    00000080 =         128. bytes (REL,CON)

      Value  Global                              Global Defined In Module
      -----  --------------------------------   ------------------------
     00000008  Ldelay.Timer0_Delay$u16CNT$1_0$4   delay
     00000008  _Timer0_Delay_PARM_2               delay
     0000000A  Ldelay.Timer0_Delay$u16DLYUnit$1   delay
     0000000A  _Timer0_Delay_PARM_3               delay
     0000000C  Ldelay.Timer1_Delay$u16CNT$1_0$5   delay
     0000000C  _Timer1_Delay_PARM_2               delay
     0000000E  Ldelay.Timer1_Delay$u16DLYUnit$1   delay
     0000000E  _Timer1_Delay_PARM_3               delay
     00000010  Ldelay.Timer2_Delay$u16TMDIV$1_0   delay
     00000010  _Timer2_Delay_PARM_2               delay
     00000012  Ldelay.Timer2_Delay$u16CNT$1_0$5   delay
     00000012  _Timer2_Delay_PARM_3               delay
     00000014  Ldelay.Timer2_Delay$u32DLYUnit$1   delay
     00000014  _Timer2_Delay_PARM_4               delay
     00000018  Ldelay.Timer3_Delay$u8TMDIV$1_0$   delay
     00000018  _Timer3_Delay_PARM_2               delay
     00000019  Ldelay.Timer3_Delay$u16CNT$1_0$5   delay
     00000019  _Timer3_Delay_PARM_3               delay
     0000001B  Ldelay.Timer3_Delay$u32DLYUnit$1   delay
     0000001B  _Timer3_Delay_PARM_4               delay
     0000001F  _vprintf_PARM_2                    vprintf
     00000021  G$TA_REG_TMP$0_0$0                 sys
     00000021  _TA_REG_TMP                        sys
     00000022  G$BYTE_TMP$0_0$0                   sys
     00000022  _BYTE_TMP                          sys
     00000023  G$SFRS_TMP$0_0$0                   sys
     00000023  _SFRS_TMP                          sys
     00000024  G$uart0_receive_data$0_0$0         uart
     00000024  _uart0_receive_data                uart
     00000025  G$uart1_receive_data$0_0$0         uart
     00000025  _uart1_receive_data                uart
     00000026  Luart.UART_Open$u8UARTPort$1_0$6   uart
     00000026  _UART_Open_PARM_2                  uart
     00000027  Luart.UART_Open$u32Baudrate$1_0$   uart
     00000027  _UART_Open_PARM_3                  uart
     0000002B  Luart.UART_Open$sloc0$0_1$0        uart
     0000003C  __print_format_PARM_2              printf_large
     0000003F  __print_format_PARM_3              printf_large
     00000042  __print_format_PARM_4              printf_large
     0000005C  _bp                                _bp

ASxxxx Linker V03.00 + NoICE + sdld,  page 20.
Hexadecimal  [32-Bits]

Area                                    Addr        Size        Decimal Bytes (Attributes)
--------------------------------        ----        ----        ------- ----- ------------
OSEG                                0000005D    00000004 =           4. bytes (REL,OVR)

      Value  Global                              Global Defined In Module
      -----  --------------------------------   ------------------------
     0000005D  Ladc.ADC_ConvertTime$u8ADCDIV$1_   adc
     0000005D  Ladc.ADC_InitialContinous$u8ADCR   adc
     0000005D  Luart.UART_Send_Data$c$1_0$67      uart
     0000005D  _ADC_ConvertTime_PARM_2            adc
     0000005D  _ADC_InitialContinous_PARM_2       adc
     0000005D  _UART_Send_Data_PARM_2             uart
     0000005D  __divslong_PARM_2                  _divulong
     0000005D  __divulong_PARM_2                  _divulong
     0000005D  __mulint_PARM_2                    _mulint
     0000005D  __mullong_PARM_2                   _mullong
     0000005E  Ladc.ADC_ConvertTime$u8ADCAQT$1_   adc
     0000005E  _ADC_ConvertTime_PARM_3            adc
ASxxxx Linker V03.00 + NoICE + sdld,  page 21.
Hexadecimal  [32-Bits]

Area                                    Addr        Size        Decimal Bytes (Attributes)
--------------------------------        ----        ----        ------- ----- ------------
ISEG                                00000061    00000006 =           6. bytes (REL,CON)

      Value  Global                              Global Defined In Module
      -----  --------------------------------   ------------------------
ASxxxx Linker V03.00 + NoICE + sdld,  page 22.
Hexadecimal  [32-Bits]

Area                                    Addr        Size        Decimal Bytes (Attributes)
--------------------------------        ----        ----        ------- ----- ------------
SSEG                                00000067    00000099 =         153. bytes (REL,OVR)

      Value  Global                              Global Defined In Module
      -----  --------------------------------   ------------------------
     00000067  __start__stack                     ADC_simple

ASxxxx Linker V03.00 + NoICE + sdld,  page 23.
Hexadecimal  [32-Bits]

Area                                    Addr        Size        Decimal Bytes (Attributes)
--------------------------------        ----        ----        ------- ----- ------------
HOME                                00000000    00000006 =           6. bytes (REL,CON,CODE)

      Value  Global                              Global Defined In Module
      -----  --------------------------------   ------------------------
C:   00000000  A$ADC_simpleSampleCode\RegBased\   ADC_simple
C:   00000003  A$ADC_simpleSampleCode\RegBased\   ADC_simple
C:   00000003  __sdcc_program_startup             ADC_simple
ASxxxx Linker V03.00 + NoICE + sdld,  page 24.
Hexadecimal  [32-Bits]

Area                                    Addr        Size        Decimal Bytes (Attributes)
--------------------------------        ----        ----        ------- ----- ------------
GSINIT0                             00000006    00000003 =           3. bytes (REL,CON,CODE)

      Value  Global                              Global Defined In Module
      -----  --------------------------------   ------------------------
C:   00000006  __sdcc_gsinit_startup              

ASxxxx Linker V03.00 + NoICE + sdld,  page 25.
Hexadecimal  [32-Bits]

Area                                    Addr        Size        Decimal Bytes (Attributes)
--------------------------------        ----        ----        ------- ----- ------------
GSINIT2                             00000009    0000000A =          10. bytes (REL,CON,CODE)

      Value  Global                              Global Defined In Module
      -----  --------------------------------   ------------------------
ASxxxx Linker V03.00 + NoICE + sdld,  page 26.
Hexadecimal  [32-Bits]

Area                                    Addr        Size        Decimal Bytes (Attributes)
--------------------------------        ----        ----        ------- ----- ------------
GSINIT3                             00000013    00000022 =          34. bytes (REL,CON,CODE)

      Value  Global                              Global Defined In Module
      -----  --------------------------------   ------------------------
C:   00000013  __mcs51_genXINIT                   

ASxxxx Linker V03.00 + NoICE + sdld,  page 27.
Hexadecimal  [32-Bits]

Area                                    Addr        Size        Decimal Bytes (Attributes)
--------------------------------        ----        ----        ------- ----- ------------
GSINIT4                             00000035    0000002A =          42. bytes (REL,CON,CODE)

      Value  Global                              Global Defined In Module
      -----  --------------------------------   ------------------------
C:   00000035  __mcs51_genRAMCLEAR                
C:   0000003B  __mcs51_genXRAMCLEAR               

ASxxxx Linker V03.00 + NoICE + sdld,  page 28.
Hexadecimal  [32-Bits]

Area                                    Addr        Size        Decimal Bytes (Attributes)
--------------------------------        ----        ----        ------- ----- ------------
GSINIT                              0000005F    00000004 =           4. bytes (REL,CON,CODE)

      Value  Global                              Global Defined In Module
      -----  --------------------------------   ------------------------
C:   0000005F  A$uartDebug\Library\StdDriver\sr   uart
C:   0000005F  C$uart.c$14$1_0$68                 uart
C:   00000061  A$uartDebug\Library\StdDriver\sr   uart
C:   00000061  C$uart.c$15$1_0$68                 uart

ASxxxx Linker V03.00 + NoICE + sdld,  page 29.
Hexadecimal  [32-Bits]

Area                                    Addr        Size        Decimal Bytes (Attributes)
--------------------------------        ----        ----        ------- ----- ------------
GSFINAL                             00000063    00000003 =           3. bytes (REL,CON,CODE)

      Value  Global                              Global Defined In Module
      -----  --------------------------------   ------------------------
C:   00000063  A$ADC_simpleSampleCode\RegBased\   ADC_simple

ASxxxx Linker V03.00 + NoICE + sdld,  page 30.
Hexadecimal  [32-Bits]

Area                                    Addr        Size        Decimal Bytes (Attributes)
--------------------------------        ----        ----        ------- ----- ------------
CSEG                                00000066    0000151F =        5407. bytes (REL,CON,CODE)

      Value  Global                              Global Defined In Module
      -----  --------------------------------   ------------------------
C:   00000066  A$adc\Debug\Library\StdDriver\sr   adc
C:   00000066  C$adc.c$27$0_0$56                  adc
C:   00000066  G$ADC_InitialContinous$0$0         adc
C:   00000066  _ADC_InitialContinous              adc
C:   00000068  A$adc\Debug\Library\StdDriver\sr   adc
C:   0000006A  A$adc\Debug\Library\StdDriver\sr   adc
C:   0000006A  C$adc.c$29$1_0$56                  adc
C:   0000006D  A$adc\Debug\Library\StdDriver\sr   adc
C:   0000006D  C$adc.c$30$1_0$56                  adc
C:   0000006F  A$adc\Debug\Library\StdDriver\sr   adc
C:   0000006F  C$adc.c$31$1_0$56                  adc
C:   00000071  A$adc\Debug\Library\StdDriver\sr   adc
C:   00000071  C$adc.c$32$1_0$56                  adc
C:   00000073  A$adc\Debug\Library\StdDriver\sr   adc
C:   00000074  A$adc\Debug\Library\StdDriver\sr   adc
C:   00000076  A$adc\Debug\Library\StdDriver\sr   adc
C:   00000076  C$adc.c$33$1_0$56                  adc
C:   00000079  A$adc\Debug\Library\StdDriver\sr   adc
C:   00000079  C$adc.c$34$1_0$56                  adc
C:   00000079  XG$ADC_InitialContinous$0$0        adc
C:   0000007A  A$adc\Debug\Library\StdDriver\sr   adc
C:   0000007A  C$adc.c$45$1_0$58                  adc
C:   0000007A  G$ADC_ConvertTime$0$0              adc
C:   0000007A  _ADC_ConvertTime                   adc
C:   0000007C  A$adc\Debug\Library\StdDriver\sr   adc
C:   0000007C  C$adc.c$47$1_0$58                  adc
C:   0000007F  A$adc\Debug\Library\StdDriver\sr   adc
C:   0000007F  C$adc.c$48$1_0$58                  adc
C:   00000082  A$adc\Debug\Library\StdDriver\sr   adc
C:   00000082  C$adc.c$49$1_0$58                  adc
C:   00000084  A$adc\Debug\Library\StdDriver\sr   adc
C:   00000086  A$adc\Debug\Library\StdDriver\sr   adc
C:   00000087  A$adc\Debug\Library\StdDriver\sr   adc
C:   00000089  A$adc\Debug\Library\StdDriver\sr   adc
C:   0000008A  A$adc\Debug\Library\StdDriver\sr   adc
C:   0000008C  A$adc\Debug\Library\StdDriver\sr   adc
C:   0000008D  A$adc\Debug\Library\StdDriver\sr   adc
C:   0000008F  A$adc\Debug\Library\StdDriver\sr   adc
C:   0000008F  C$adc.c$50$1_0$58                  adc
C:   00000090  A$adc\Debug\Library\StdDriver\sr   adc
C:   00000092  A$adc\Debug\Library\StdDriver\sr   adc
C:   00000094  A$adc\Debug\Library\StdDriver\sr   adc
C:   00000097  A$adc\Debug\Library\StdDriver\sr   adc
C:   00000098  A$adc\Debug\Library\StdDriver\sr   adc
C:   0000009A  A$adc\Debug\Library\StdDriver\sr   adc
C:   0000009B  A$adc\Debug\Library\StdDriver\sr   adc
C:   0000009D  A$adc\Debug\Library\StdDriver\sr   adc
C:   0000009E  A$adc\Debug\Library\StdDriver\sr   adc
C:   000000A0  A$adc\Debug\Library\StdDriver\sr   adc
C:   000000A1  A$adc\Debug\Library\StdDriver\sr   adc
ASxxxx Linker V03.00 + NoICE + sdld,  page 31.
Hexadecimal  [32-Bits]

Area                                    Addr        Size        Decimal Bytes (Attributes)
--------------------------------        ----        ----        ------- ----- ------------
CSEG                                00000066    0000151F =        5407. bytes (REL,CON,CODE)

      Value  Global                              Global Defined In Module
      -----  --------------------------------   ------------------------
C:   000000A3  A$adc\Debug\Library\StdDriver\sr   adc
C:   000000A4  A$adc\Debug\Library\StdDriver\sr   adc
C:   000000C5  A$adc\Debug\Library\StdDriver\sr   adc
C:   000000C5  C$adc.c$60$2_0$59                  adc
C:   000000C5  C$adc.c$61$2_0$59                  adc
C:   000000C8  A$adc\Debug\Library\StdDriver\sr   adc
C:   000000C8  C$adc.c$62$2_0$59                  adc
C:   000000CA  A$adc\Debug\Library\StdDriver\sr   adc
C:   000000CC  A$adc\Debug\Library\StdDriver\sr   adc
C:   000000CE  A$adc\Debug\Library\StdDriver\sr   adc
C:   000000CF  A$adc\Debug\Library\StdDriver\sr   adc
C:   000000D1  A$adc\Debug\Library\StdDriver\sr   adc
C:   000000D2  A$adc\Debug\Library\StdDriver\sr   adc
C:   000000D4  A$adc\Debug\Library\StdDriver\sr   adc
C:   000000D4  C$adc.c$63$2_0$59                  adc
C:   000000D4  C$adc.c$71$2_0$59                  adc
C:   000000D6  A$adc\Debug\Library\StdDriver\sr   adc
C:   000000D6  C$adc.c$72$2_0$59                  adc
C:   000000D9  A$adc\Debug\Library\StdDriver\sr   adc
C:   000000D9  C$adc.c$73$2_0$59                  adc
C:   000000DC  A$adc\Debug\Library\StdDriver\sr   adc
C:   000000DC  C$adc.c$74$2_0$59                  adc
C:   000000DE  A$adc\Debug\Library\StdDriver\sr   adc
C:   000000E0  A$adc\Debug\Library\StdDriver\sr   adc
C:   000000E2  A$adc\Debug\Library\StdDriver\sr   adc
C:   000000E3  A$adc\Debug\Library\StdDriver\sr   adc
C:   000000E5  A$adc\Debug\Library\StdDriver\sr   adc
C:   000000E6  A$adc\Debug\Library\StdDriver\sr   adc
C:   000000E8  A$adc\Debug\Library\StdDriver\sr   adc
C:   000000E8  C$adc.c$76$1_0$58                  adc
C:   000000E8  C$adc.c$77$1_0$58                  adc
C:   000000EB  A$adc\Debug\Library\StdDriver\sr   adc
C:   000000EB  C$adc.c$78$1_0$58                  adc
C:   000000EB  XG$ADC_ConvertTime$0$0             adc
C:   000000EC  A$adc\Debug\Library\StdDriver\sr   adc
C:   000000EC  C$adc.c$86$1_0$60                  adc
C:   000000EC  C$adc.c$90$1_0$60                  adc
C:   000000EC  G$READ_BANDGAP$0$0                 adc
C:   000000EC  _READ_BANDGAP                      adc
C:   000000EF  A$adc\Debug\Library\StdDriver\sr   adc
C:   000000F1  A$adc\Debug\Library\StdDriver\sr   adc
C:   000000F3  A$adc\Debug\Library\StdDriver\sr   adc
C:   000000F5  A$adc\Debug\Library\StdDriver\sr   adc
C:   000000F8  A$adc\Debug\Library\StdDriver\sr   adc
C:   000000FB  A$adc\Debug\Library\StdDriver\sr   adc
C:   000000FE  A$adc\Debug\Library\StdDriver\sr   adc
C:   00000100  A$adc\Debug\Library\StdDriver\sr   adc
C:   00000102  A$adc\Debug\Library\StdDriver\sr   adc
C:   00000102  C$adc.c$91$1_0$60                  adc
C:   00000105  A$adc\Debug\Library\StdDriver\sr   adc
C:   00000105  C$adc.c$92$1_0$60                  adc
ASxxxx Linker V03.00 + NoICE + sdld,  page 32.
Hexadecimal  [32-Bits]

Area                                    Addr        Size        Decimal Bytes (Attributes)
--------------------------------        ----        ----        ------- ----- ------------
CSEG                                00000066    0000151F =        5407. bytes (REL,CON,CODE)

      Value  Global                              Global Defined In Module
      -----  --------------------------------   ------------------------
C:   00000108  A$adc\Debug\Library\StdDriver\sr   adc
C:   00000108  C$adc.c$93$1_0$60                  adc
C:   0000010B  A$adc\Debug\Library\StdDriver\sr   adc
C:   0000010B  C$adc.c$94$1_0$60                  adc
C:   0000010E  A$adc\Debug\Library\StdDriver\sr   adc
C:   00000110  A$adc\Debug\Library\StdDriver\sr   adc
C:   00000112  A$adc\Debug\Library\StdDriver\sr   adc
C:   00000114  A$adc\Debug\Library\StdDriver\sr   adc
C:   00000117  A$adc\Debug\Library\StdDriver\sr   adc
C:   0000011A  A$adc\Debug\Library\StdDriver\sr   adc
C:   0000011D  A$adc\Debug\Library\StdDriver\sr   adc
C:   0000011F  A$adc\Debug\Library\StdDriver\sr   adc
C:   00000121  A$adc\Debug\Library\StdDriver\sr   adc
C:   00000121  C$adc.c$95$1_0$60                  adc
C:   00000123  A$adc\Debug\Library\StdDriver\sr   adc
C:   00000125  A$adc\Debug\Library\StdDriver\sr   adc
C:   00000126  A$adc\Debug\Library\StdDriver\sr   adc
C:   00000126  C$adc.c$96$1_0$60                  adc
C:   00000129  A$adc\Debug\Library\StdDriver\sr   adc
C:   00000129  C$adc.c$97$1_0$60                  adc
C:   0000012C  A$adc\Debug\Library\StdDriver\sr   adc
C:   0000012C  C$adc.c$98$1_0$60                  adc
C:   0000012F  A$adc\Debug\Library\StdDriver\sr   adc
C:   00000131  A$adc\Debug\Library\StdDriver\sr   adc
C:   00000133  A$adc\Debug\Library\StdDriver\sr   adc
C:   00000135  A$adc\Debug\Library\StdDriver\sr   adc
C:   00000138  A$adc\Debug\Library\StdDriver\sr   adc
C:   0000013B  A$adc\Debug\Library\StdDriver\sr   adc
C:   0000013E  A$adc\Debug\Library\StdDriver\sr   adc
C:   00000140  A$adc\Debug\Library\StdDriver\sr   adc
C:   00000142  A$adc\Debug\Library\StdDriver\sr   adc
C:   00000142  C$adc.c$99$1_0$60                  adc
C:   00000144  A$adc\Debug\Library\StdDriver\sr   adc
C:   00000144  C$adc.c$100$1_0$60                 adc
C:   00000145  A$adc\Debug\Library\StdDriver\sr   adc
C:   00000146  A$adc\Debug\Library\StdDriver\sr   adc
C:   00000148  A$adc\Debug\Library\StdDriver\sr   adc
C:   00000149  A$adc\Debug\Library\StdDriver\sr   adc
C:   0000014A  A$adc\Debug\Library\StdDriver\sr   adc
C:   0000014B  A$adc\Debug\Library\StdDriver\sr   adc
C:   0000014C  A$adc\Debug\Library\StdDriver\sr   adc
C:   0000014D  A$adc\Debug\Library\StdDriver\sr   adc
C:   0000014F  A$adc\Debug\Library\StdDriver\sr   adc
C:   00000150  A$adc\Debug\Library\StdDriver\sr   adc
C:   00000151  A$adc\Debug\Library\StdDriver\sr   adc
C:   00000152  A$adc\Debug\Library\StdDriver\sr   adc
C:   00000154  A$adc\Debug\Library\StdDriver\sr   adc
C:   00000155  A$adc\Debug\Library\StdDriver\sr   adc
C:   00000156  A$adc\Debug\Library\StdDriver\sr   adc
C:   00000158  A$adc\Debug\Library\StdDriver\sr   adc
C:   00000159  A$adc\Debug\Library\StdDriver\sr   adc
ASxxxx Linker V03.00 + NoICE + sdld,  page 33.
Hexadecimal  [32-Bits]

Area                                    Addr        Size        Decimal Bytes (Attributes)
--------------------------------        ----        ----        ------- ----- ------------
CSEG                                00000066    0000151F =        5407. bytes (REL,CON,CODE)

      Value  Global                              Global Defined In Module
      -----  --------------------------------   ------------------------
C:   0000015A  A$adc\Debug\Library\StdDriver\sr   adc
C:   0000015C  A$adc\Debug\Library\StdDriver\sr   adc
C:   0000015C  C$adc.c$101$1_0$60                 adc
C:   0000015E  A$adc\Debug\Library\StdDriver\sr   adc
C:   00000160  A$adc\Debug\Library\StdDriver\sr   adc
C:   00000162  A$adc\Debug\Library\StdDriver\sr   adc
C:   00000164  A$adc\Debug\Library\StdDriver\sr   adc
C:   00000167  A$adc\Debug\Library\StdDriver\sr   adc
C:   0000016A  A$adc\Debug\Library\StdDriver\sr   adc
C:   0000016D  A$adc\Debug\Library\StdDriver\sr   adc
C:   0000016F  A$adc\Debug\Library\StdDriver\sr   adc
C:   00000171  A$adc\Debug\Library\StdDriver\sr   adc
C:   00000171  C$adc.c$102$1_0$60                 adc
C:   00000171  C$adc.c$103$1_0$60                 adc
C:   00000171  XG$READ_BANDGAP$0$0                adc
C:   00000172  A$delayebug\Library\StdDriver\sr   delay
C:   00000172  C$delay.c$27$0_0$49                delay
C:   00000172  G$Timer0_Delay$0$0                 delay
C:   00000172  _Timer0_Delay                      delay
C:   00000174  A$delayebug\Library\StdDriver\sr   delay
C:   00000176  A$delayebug\Library\StdDriver\sr   delay
C:   00000178  A$delayebug\Library\StdDriver\sr   delay
C:   00000179  A$delayebug\Library\StdDriver\sr   delay
C:   00000179  C$delay.c$31$1_0$49                delay
C:   0000017C  A$delayebug\Library\StdDriver\sr   delay
C:   0000017C  C$delay.c$32$1_0$49                delay
C:   0000017F  A$delayebug\Library\StdDriver\sr   delay
C:   00000182  A$delayebug\Library\StdDriver\sr   delay
C:   00000182  C$delay.c$33$1_0$49                delay
C:   00000185  A$delayebug\Library\StdDriver\sr   delay
C:   00000188  A$delayebug\Library\StdDriver\sr   delay
C:   0000018B  A$delayebug\Library\StdDriver\sr   delay
C:   0000018B  C$delay.c$34$1_0$49                delay
C:   0000018E  A$delayebug\Library\StdDriver\sr   delay
C:   00000191  A$delayebug\Library\StdDriver\sr   delay
C:   00000194  A$delayebug\Library\StdDriver\sr   delay
C:   00000197  A$delayebug\Library\StdDriver\sr   delay
C:   00000199  A$delayebug\Library\StdDriver\sr   delay
C:   0000019B  A$delayebug\Library\StdDriver\sr   delay
C:   0000019D  A$delayebug\Library\StdDriver\sr   delay
C:   0000019E  A$delayebug\Library\StdDriver\sr   delay
C:   000001A1  A$delayebug\Library\StdDriver\sr   delay
C:   000001A4  A$delayebug\Library\StdDriver\sr   delay
C:   000001A7  A$delayebug\Library\StdDriver\sr   delay
C:   000001AA  A$delayebug\Library\StdDriver\sr   delay
C:   000001AD  A$delayebug\Library\StdDriver\sr   delay
C:   000001B0  A$delayebug\Library\StdDriver\sr   delay
C:   000001B2  A$delayebug\Library\StdDriver\sr   delay
C:   000001B4  A$delayebug\Library\StdDriver\sr   delay
C:   000001B6  A$delayebug\Library\StdDriver\sr   delay
C:   000001B7  A$delayebug\Library\StdDriver\sr   delay
ASxxxx Linker V03.00 + NoICE + sdld,  page 34.
Hexadecimal  [32-Bits]

Area                                    Addr        Size        Decimal Bytes (Attributes)
--------------------------------        ----        ----        ------- ----- ------------
CSEG                                00000066    0000151F =        5407. bytes (REL,CON,CODE)

      Value  Global                              Global Defined In Module
      -----  --------------------------------   ------------------------
C:   000001BA  A$delayebug\Library\StdDriver\sr   delay
C:   000001BB  A$delayebug\Library\StdDriver\sr   delay
C:   000001BD  A$delayebug\Library\StdDriver\sr   delay
C:   000001BF  A$delayebug\Library\StdDriver\sr   delay
C:   000001C1  A$delayebug\Library\StdDriver\sr   delay
C:   000001C3  A$delayebug\Library\StdDriver\sr   delay
C:   000001C5  A$delayebug\Library\StdDriver\sr   delay
C:   000001C7  A$delayebug\Library\StdDriver\sr   delay
C:   000001C8  A$delayebug\Library\StdDriver\sr   delay
C:   000001CB  A$delayebug\Library\StdDriver\sr   delay
C:   000001CD  A$delayebug\Library\StdDriver\sr   delay
C:   000001CF  A$delayebug\Library\StdDriver\sr   delay
C:   000001D1  A$delayebug\Library\StdDriver\sr   delay
C:   000001D2  A$delayebug\Library\StdDriver\sr   delay
C:   000001D4  A$delayebug\Library\StdDriver\sr   delay
C:   000001D6  A$delayebug\Library\StdDriver\sr   delay
C:   000001D7  A$delayebug\Library\StdDriver\sr   delay
C:   000001D8  A$delayebug\Library\StdDriver\sr   delay
C:   000001D9  A$delayebug\Library\StdDriver\sr   delay
C:   000001D9  C$delay.c$35$1_0$49                delay
C:   000001DB  A$delayebug\Library\StdDriver\sr   delay
C:   000001DC  A$delayebug\Library\StdDriver\sr   delay
C:   000001DD  A$delayebug\Library\StdDriver\sr   delay
C:   000001DF  A$delayebug\Library\StdDriver\sr   delay
C:   000001E0  A$delayebug\Library\StdDriver\sr   delay
C:   000001E1  A$delayebug\Library\StdDriver\sr   delay
C:   000001E2  A$delayebug\Library\StdDriver\sr   delay
C:   000001E3  A$delayebug\Library\StdDriver\sr   delay
C:   000001E4  A$delayebug\Library\StdDriver\sr   delay
C:   000001E5  A$delayebug\Library\StdDriver\sr   delay
C:   000001E7  A$delayebug\Library\StdDriver\sr   delay
C:   000001E7  C$delay.c$37$1_0$49                delay
C:   000001E9  A$delayebug\Library\StdDriver\sr   delay
C:   000001EB  A$delayebug\Library\StdDriver\sr   delay
C:   000001EC  A$delayebug\Library\StdDriver\sr   delay
C:   000001ED  A$delayebug\Library\StdDriver\sr   delay
C:   000001EF  A$delayebug\Library\StdDriver\sr   delay
C:   000001EF  C$delay.c$39$2_0$50                delay
C:   000001F1  A$delayebug\Library\StdDriver\sr   delay
C:   000001F1  C$delay.c$40$2_0$50                delay
C:   000001F3  A$delayebug\Library\StdDriver\sr   delay
C:   000001F3  C$delay.c$41$2_0$50                delay
C:   000001F6  A$delayebug\Library\StdDriver\sr   delay
C:   000001F6  C$delay.c$42$2_0$50                delay
C:   000001F9  A$delayebug\Library\StdDriver\sr   delay
C:   000001F9  C$delay.c$43$2_0$50                delay
C:   000001FC  A$delayebug\Library\StdDriver\sr   delay
C:   000001FC  C$delay.c$44$2_0$50                delay
C:   000001FF  A$delayebug\Library\StdDriver\sr   delay
C:   000001FF  C$delay.c$45$2_0$50                delay
C:   00000200  A$delayebug\Library\StdDriver\sr   delay
ASxxxx Linker V03.00 + NoICE + sdld,  page 35.
Hexadecimal  [32-Bits]

Area                                    Addr        Size        Decimal Bytes (Attributes)
--------------------------------        ----        ----        ------- ----- ------------
CSEG                                00000066    0000151F =        5407. bytes (REL,CON,CODE)

      Value  Global                              Global Defined In Module
      -----  --------------------------------   ------------------------
C:   00000203  A$delayebug\Library\StdDriver\sr   delay
C:   00000204  A$delayebug\Library\StdDriver\sr   delay
C:   00000206  A$delayebug\Library\StdDriver\sr   delay
C:   00000206  C$delay.c$48$1_0$49                delay
C:   00000209  A$delayebug\Library\StdDriver\sr   delay
C:   00000209  C$delay.c$49$1_0$49                delay
C:   0000020C  A$delayebug\Library\StdDriver\sr   delay
C:   0000020C  C$delay.c$50$1_0$49                delay
C:   0000020C  XG$Timer0_Delay$0$0                delay
C:   0000020D  A$delayebug\Library\StdDriver\sr   delay
C:   0000020D  C$delay.c$65$1_0$52                delay
C:   0000020D  G$Timer1_Delay$0$0                 delay
C:   0000020D  _Timer1_Delay                      delay
C:   0000020F  A$delayebug\Library\StdDriver\sr   delay
C:   00000211  A$delayebug\Library\StdDriver\sr   delay
C:   00000213  A$delayebug\Library\StdDriver\sr   delay
C:   00000214  A$delayebug\Library\StdDriver\sr   delay
C:   00000214  C$delay.c$69$1_0$52                delay
C:   00000217  A$delayebug\Library\StdDriver\sr   delay
C:   00000217  C$delay.c$70$1_0$52                delay
C:   0000021A  A$delayebug\Library\StdDriver\sr   delay
C:   0000021D  A$delayebug\Library\StdDriver\sr   delay
C:   0000021D  C$delay.c$71$1_0$52                delay
C:   00000220  A$delayebug\Library\StdDriver\sr   delay
C:   00000223  A$delayebug\Library\StdDriver\sr   delay
C:   00000226  A$delayebug\Library\StdDriver\sr   delay
C:   00000226  C$delay.c$72$1_0$52                delay
C:   00000229  A$delayebug\Library\StdDriver\sr   delay
C:   0000022C  A$delayebug\Library\StdDriver\sr   delay
C:   0000022F  A$delayebug\Library\StdDriver\sr   delay
C:   00000232  A$delayebug\Library\StdDriver\sr   delay
C:   00000234  A$delayebug\Library\StdDriver\sr   delay
C:   00000236  A$delayebug\Library\StdDriver\sr   delay
C:   00000238  A$delayebug\Library\StdDriver\sr   delay
C:   00000239  A$delayebug\Library\StdDriver\sr   delay
C:   0000023C  A$delayebug\Library\StdDriver\sr   delay
C:   0000023F  A$delayebug\Library\StdDriver\sr   delay
C:   00000242  A$delayebug\Library\StdDriver\sr   delay
C:   00000245  A$delayebug\Library\StdDriver\sr   delay
C:   00000248  A$delayebug\Library\StdDriver\sr   delay
C:   0000024B  A$delayebug\Library\StdDriver\sr   delay
C:   0000024D  A$delayebug\Library\StdDriver\sr   delay
C:   0000024F  A$delayebug\Library\StdDriver\sr   delay
C:   00000251  A$delayebug\Library\StdDriver\sr   delay
C:   00000252  A$delayebug\Library\StdDriver\sr   delay
C:   00000255  A$delayebug\Library\StdDriver\sr   delay
C:   00000256  A$delayebug\Library\StdDriver\sr   delay
C:   00000258  A$delayebug\Library\StdDriver\sr   delay
C:   0000025A  A$delayebug\Library\StdDriver\sr   delay
C:   0000025C  A$delayebug\Library\StdDriver\sr   delay
C:   0000025E  A$delayebug\Library\StdDriver\sr   delay
ASxxxx Linker V03.00 + NoICE + sdld,  page 36.
Hexadecimal  [32-Bits]

Area                                    Addr        Size        Decimal Bytes (Attributes)
--------------------------------        ----        ----        ------- ----- ------------
CSEG                                00000066    0000151F =        5407. bytes (REL,CON,CODE)

      Value  Global                              Global Defined In Module
      -----  --------------------------------   ------------------------
C:   00000260  A$delayebug\Library\StdDriver\sr   delay
C:   00000262  A$delayebug\Library\StdDriver\sr   delay
C:   00000263  A$delayebug\Library\StdDriver\sr   delay
C:   00000266  A$delayebug\Library\StdDriver\sr   delay
C:   00000268  A$delayebug\Library\StdDriver\sr   delay
C:   0000026A  A$delayebug\Library\StdDriver\sr   delay
C:   0000026C  A$delayebug\Library\StdDriver\sr   delay
C:   0000026D  A$delayebug\Library\StdDriver\sr   delay
C:   0000026F  A$delayebug\Library\StdDriver\sr   delay
C:   00000271  A$delayebug\Library\StdDriver\sr   delay
C:   00000272  A$delayebug\Library\StdDriver\sr   delay
C:   00000273  A$delayebug\Library\StdDriver\sr   delay
C:   00000274  A$delayebug\Library\StdDriver\sr   delay
C:   00000274  C$delay.c$73$1_0$52                delay
C:   00000276  A$delayebug\Library\StdDriver\sr   delay
C:   00000277  A$delayebug\Library\StdDriver\sr   delay
C:   00000278  A$delayebug\Library\StdDriver\sr   delay
C:   0000027A  A$delayebug\Library\StdDriver\sr   delay
C:   0000027B  A$delayebug\Library\StdDriver\sr   delay
C:   0000027C  A$delayebug\Library\StdDriver\sr   delay
C:   0000027D  A$delayebug\Library\StdDriver\sr   delay
C:   0000027E  A$delayebug\Library\StdDriver\sr   delay
C:   0000027F  A$delayebug\Library\StdDriver\sr   delay
C:   00000280  A$delayebug\Library\StdDriver\sr   delay
C:   00000282  A$delayebug\Library\StdDriver\sr   delay
C:   00000282  C$delay.c$75$1_0$52                delay
C:   00000284  A$delayebug\Library\StdDriver\sr   delay
C:   00000286  A$delayebug\Library\StdDriver\sr   delay
C:   00000287  A$delayebug\Library\StdDriver\sr   delay
C:   00000288  A$delayebug\Library\StdDriver\sr   delay
C:   0000028A  A$delayebug\Library\StdDriver\sr   delay
C:   0000028A  C$delay.c$77$2_0$53                delay
C:   0000028C  A$delayebug\Library\StdDriver\sr   delay
C:   0000028C  C$delay.c$78$2_0$53                delay
C:   0000028E  A$delayebug\Library\StdDriver\sr   delay
C:   0000028E  C$delay.c$79$2_0$53                delay
C:   00000291  A$delayebug\Library\StdDriver\sr   delay
C:   00000291  C$delay.c$80$2_0$53                delay
C:   00000294  A$delayebug\Library\StdDriver\sr   delay
C:   00000294  C$delay.c$81$2_0$53                delay
C:   00000297  A$delayebug\Library\StdDriver\sr   delay
C:   00000297  C$delay.c$82$2_0$53                delay
C:   0000029A  A$delayebug\Library\StdDriver\sr   delay
C:   0000029A  C$delay.c$83$2_0$53                delay
C:   0000029B  A$delayebug\Library\StdDriver\sr   delay
C:   0000029E  A$delayebug\Library\StdDriver\sr   delay
C:   0000029F  A$delayebug\Library\StdDriver\sr   delay
C:   000002A1  A$delayebug\Library\StdDriver\sr   delay
C:   000002A1  C$delay.c$85$1_0$52                delay
C:   000002A1  XG$Timer1_Delay$0$0                delay
C:   000002A2  A$delayebug\Library\StdDriver\sr   delay
ASxxxx Linker V03.00 + NoICE + sdld,  page 37.
Hexadecimal  [32-Bits]

Area                                    Addr        Size        Decimal Bytes (Attributes)
--------------------------------        ----        ----        ------- ----- ------------
CSEG                                00000066    0000151F =        5407. bytes (REL,CON,CODE)

      Value  Global                              Global Defined In Module
      -----  --------------------------------   ------------------------
C:   000002A2  C$delay.c$102$1_0$55               delay
C:   000002A2  G$Timer2_Delay$0$0                 delay
C:   000002A2  _Timer2_Delay                      delay
C:   000002A4  A$delayebug\Library\StdDriver\sr   delay
C:   000002A6  A$delayebug\Library\StdDriver\sr   delay
C:   000002A8  A$delayebug\Library\StdDriver\sr   delay
C:   000002A9  A$delayebug\Library\StdDriver\sr   delay
C:   000002A9  C$delay.c$106$1_0$55               delay
C:   000002AC  A$delayebug\Library\StdDriver\sr   delay
C:   000002AC  C$delay.c$107$1_0$55               delay
C:   000002AE  A$delayebug\Library\StdDriver\sr   delay
C:   000002B1  A$delayebug\Library\StdDriver\sr   delay
C:   000002B2  A$delayebug\Library\StdDriver\sr   delay
C:   000002B5  A$delayebug\Library\StdDriver\sr   delay
C:   000002B7  A$delayebug\Library\StdDriver\sr   delay
C:   000002B9  A$delayebug\Library\StdDriver\sr   delay
C:   000002BC  A$delayebug\Library\StdDriver\sr   delay
C:   000002BD  A$delayebug\Library\StdDriver\sr   delay
C:   000002C0  A$delayebug\Library\StdDriver\sr   delay
C:   000002C2  A$delayebug\Library\StdDriver\sr   delay
C:   000002C4  A$delayebug\Library\StdDriver\sr   delay
C:   000002C7  A$delayebug\Library\StdDriver\sr   delay
C:   000002C8  A$delayebug\Library\StdDriver\sr   delay
C:   000002CB  A$delayebug\Library\StdDriver\sr   delay
C:   000002CD  A$delayebug\Library\StdDriver\sr   delay
C:   000002CF  A$delayebug\Library\StdDriver\sr   delay
C:   000002D2  A$delayebug\Library\StdDriver\sr   delay
C:   000002D3  A$delayebug\Library\StdDriver\sr   delay
C:   000002D6  A$delayebug\Library\StdDriver\sr   delay
C:   000002D8  A$delayebug\Library\StdDriver\sr   delay
C:   000002DA  A$delayebug\Library\StdDriver\sr   delay
C:   000002DD  A$delayebug\Library\StdDriver\sr   delay
C:   000002DE  A$delayebug\Library\StdDriver\sr   delay
C:   000002E1  A$delayebug\Library\StdDriver\sr   delay
C:   000002E3  A$delayebug\Library\StdDriver\sr   delay
C:   000002E5  A$delayebug\Library\StdDriver\sr   delay
C:   000002E8  A$delayebug\Library\StdDriver\sr   delay
C:   000002E9  A$delayebug\Library\StdDriver\sr   delay
C:   000002EC  A$delayebug\Library\StdDriver\sr   delay
C:   000002EE  A$delayebug\Library\StdDriver\sr   delay
C:   000002EF  A$delayebug\Library\StdDriver\sr   delay
C:   000002F2  A$delayebug\Library\StdDriver\sr   delay
C:   000002F3  A$delayebug\Library\StdDriver\sr   delay
C:   000002F6  A$delayebug\Library\StdDriver\sr   delay
C:   000002F8  A$delayebug\Library\StdDriver\sr   delay
C:   000002F9  A$delayebug\Library\StdDriver\sr   delay
C:   000002F9  C$delay.c$109$2_0$56               delay
C:   000002FC  A$delayebug\Library\StdDriver\sr   delay
C:   000002FE  A$delayebug\Library\StdDriver\sr   delay
C:   00000301  A$delayebug\Library\StdDriver\sr   delay
C:   00000303  A$delayebug\Library\StdDriver\sr   delay
ASxxxx Linker V03.00 + NoICE + sdld,  page 38.
Hexadecimal  [32-Bits]

Area                                    Addr        Size        Decimal Bytes (Attributes)
--------------------------------        ----        ----        ------- ----- ------------
CSEG                                00000066    0000151F =        5407. bytes (REL,CON,CODE)

      Value  Global                              Global Defined In Module
      -----  --------------------------------   ------------------------
C:   00000306  A$delayebug\Library\StdDriver\sr   delay
C:   00000306  C$delay.c$110$2_0$56               delay
C:   00000308  A$delayebug\Library\StdDriver\sr   delay
C:   0000030B  A$delayebug\Library\StdDriver\sr   delay
C:   0000030E  A$delayebug\Library\StdDriver\sr   delay
C:   0000030E  C$delay.c$111$2_0$56               delay
C:   00000310  A$delayebug\Library\StdDriver\sr   delay
C:   00000313  A$delayebug\Library\StdDriver\sr   delay
C:   00000316  A$delayebug\Library\StdDriver\sr   delay
C:   00000316  C$delay.c$112$2_0$56               delay
C:   00000318  A$delayebug\Library\StdDriver\sr   delay
C:   0000031B  A$delayebug\Library\StdDriver\sr   delay
C:   0000031E  A$delayebug\Library\StdDriver\sr   delay
C:   0000031E  C$delay.c$113$2_0$56               delay
C:   00000320  A$delayebug\Library\StdDriver\sr   delay
C:   00000323  A$delayebug\Library\StdDriver\sr   delay
C:   00000326  A$delayebug\Library\StdDriver\sr   delay
C:   00000326  C$delay.c$114$2_0$56               delay
C:   00000328  A$delayebug\Library\StdDriver\sr   delay
C:   0000032B  A$delayebug\Library\StdDriver\sr   delay
C:   0000032E  A$delayebug\Library\StdDriver\sr   delay
C:   0000032E  C$delay.c$115$2_0$56               delay
C:   00000330  A$delayebug\Library\StdDriver\sr   delay
C:   00000333  A$delayebug\Library\StdDriver\sr   delay
C:   00000336  A$delayebug\Library\StdDriver\sr   delay
C:   00000336  C$delay.c$116$2_0$56               delay
C:   00000338  A$delayebug\Library\StdDriver\sr   delay
C:   0000033B  A$delayebug\Library\StdDriver\sr   delay
C:   0000033E  A$delayebug\Library\StdDriver\sr   delay
C:   0000033E  C$delay.c$117$1_0$55               delay
C:   0000033E  C$delay.c$118$1_0$55               delay
C:   00000341  A$delayebug\Library\StdDriver\sr   delay
C:   00000341  C$delay.c$119$1_0$55               delay
C:   00000344  A$delayebug\Library\StdDriver\sr   delay
C:   00000347  A$delayebug\Library\StdDriver\sr   delay
C:   00000347  C$delay.c$120$1_0$55               delay
C:   0000034A  A$delayebug\Library\StdDriver\sr   delay
C:   0000034D  A$delayebug\Library\StdDriver\sr   delay
C:   0000034D  C$delay.c$121$1_0$55               delay
C:   00000350  A$delayebug\Library\StdDriver\sr   delay
C:   00000353  A$delayebug\Library\StdDriver\sr   delay
C:   00000356  A$delayebug\Library\StdDriver\sr   delay
C:   00000359  A$delayebug\Library\StdDriver\sr   delay
C:   0000035B  A$delayebug\Library\StdDriver\sr   delay
C:   0000035D  A$delayebug\Library\StdDriver\sr   delay
C:   0000035F  A$delayebug\Library\StdDriver\sr   delay
C:   00000360  A$delayebug\Library\StdDriver\sr   delay
C:   00000363  A$delayebug\Library\StdDriver\sr   delay
C:   00000366  A$delayebug\Library\StdDriver\sr   delay
C:   00000369  A$delayebug\Library\StdDriver\sr   delay
C:   0000036C  A$delayebug\Library\StdDriver\sr   delay
ASxxxx Linker V03.00 + NoICE + sdld,  page 39.
Hexadecimal  [32-Bits]

Area                                    Addr        Size        Decimal Bytes (Attributes)
--------------------------------        ----        ----        ------- ----- ------------
CSEG                                00000066    0000151F =        5407. bytes (REL,CON,CODE)

      Value  Global                              Global Defined In Module
      -----  --------------------------------   ------------------------
C:   0000036F  A$delayebug\Library\StdDriver\sr   delay
C:   00000372  A$delayebug\Library\StdDriver\sr   delay
C:   00000375  A$delayebug\Library\StdDriver\sr   delay
C:   00000378  A$delayebug\Library\StdDriver\sr   delay
C:   0000037B  A$delayebug\Library\StdDriver\sr   delay
C:   0000037E  A$delayebug\Library\StdDriver\sr   delay
C:   00000381  A$delayebug\Library\StdDriver\sr   delay
C:   00000383  A$delayebug\Library\StdDriver\sr   delay
C:   00000385  A$delayebug\Library\StdDriver\sr   delay
C:   00000387  A$delayebug\Library\StdDriver\sr   delay
C:   00000388  A$delayebug\Library\StdDriver\sr   delay
C:   0000038A  A$delayebug\Library\StdDriver\sr   delay
C:   0000038B  A$delayebug\Library\StdDriver\sr   delay
C:   0000038C  A$delayebug\Library\StdDriver\sr   delay
C:   0000038D  A$delayebug\Library\StdDriver\sr   delay
C:   0000038E  A$delayebug\Library\StdDriver\sr   delay
C:   0000038E  C$delay.c$122$1_0$55               delay
C:   0000038F  A$delayebug\Library\StdDriver\sr   delay
C:   00000390  A$delayebug\Library\StdDriver\sr   delay
C:   00000391  A$delayebug\Library\StdDriver\sr   delay
C:   00000392  A$delayebug\Library\StdDriver\sr   delay
C:   00000393  A$delayebug\Library\StdDriver\sr   delay
C:   00000394  A$delayebug\Library\StdDriver\sr   delay
C:   00000396  A$delayebug\Library\StdDriver\sr   delay
C:   00000397  A$delayebug\Library\StdDriver\sr   delay
C:   00000398  A$delayebug\Library\StdDriver\sr   delay
C:   00000399  A$delayebug\Library\StdDriver\sr   delay
C:   0000039B  A$delayebug\Library\StdDriver\sr   delay
C:   0000039B  C$delay.c$123$1_0$55               delay
C:   0000039D  A$delayebug\Library\StdDriver\sr   delay
C:   0000039F  A$delayebug\Library\StdDriver\sr   delay
C:   000003A0  A$delayebug\Library\StdDriver\sr   delay
C:   000003A1  A$delayebug\Library\StdDriver\sr   delay
C:   000003A3  A$delayebug\Library\StdDriver\sr   delay
C:   000003A3  C$delay.c$125$2_0$57               delay
C:   000003A5  A$delayebug\Library\StdDriver\sr   delay
C:   000003A5  C$delay.c$126$2_0$57               delay
C:   000003A7  A$delayebug\Library\StdDriver\sr   delay
C:   000003A7  C$delay.c$127$2_0$57               delay
C:   000003AA  A$delayebug\Library\StdDriver\sr   delay
C:   000003AA  C$delay.c$128$2_0$57               delay
C:   000003AD  A$delayebug\Library\StdDriver\sr   delay
C:   000003AD  C$delay.c$129$2_0$57               delay
C:   000003B0  A$delayebug\Library\StdDriver\sr   delay
C:   000003B0  C$delay.c$130$2_0$57               delay
C:   000003B3  A$delayebug\Library\StdDriver\sr   delay
C:   000003B3  C$delay.c$131$2_0$57               delay
C:   000003B4  A$delayebug\Library\StdDriver\sr   delay
C:   000003B7  A$delayebug\Library\StdDriver\sr   delay
C:   000003B8  A$delayebug\Library\StdDriver\sr   delay
C:   000003BA  A$delayebug\Library\StdDriver\sr   delay
ASxxxx Linker V03.00 + NoICE + sdld,  page 40.
Hexadecimal  [32-Bits]

Area                                    Addr        Size        Decimal Bytes (Attributes)
--------------------------------        ----        ----        ------- ----- ------------
CSEG                                00000066    0000151F =        5407. bytes (REL,CON,CODE)

      Value  Global                              Global Defined In Module
      -----  --------------------------------   ------------------------
C:   000003BA  C$delay.c$133$1_0$55               delay
C:   000003BA  XG$Timer2_Delay$0$0                delay
C:   000003BB  A$delayebug\Library\StdDriver\sr   delay
C:   000003BB  C$delay.c$149$1_0$59               delay
C:   000003BB  G$Timer3_Delay$0$0                 delay
C:   000003BB  _Timer3_Delay                      delay
C:   000003BD  A$delayebug\Library\StdDriver\sr   delay
C:   000003BF  A$delayebug\Library\StdDriver\sr   delay
C:   000003C1  A$delayebug\Library\StdDriver\sr   delay
C:   000003C2  A$delayebug\Library\StdDriver\sr   delay
C:   000003C2  C$delay.c$153$1_0$59               delay
C:   000003C5  A$delayebug\Library\StdDriver\sr   delay
C:   000003C5  C$delay.c$154$1_0$59               delay
C:   000003C7  A$delayebug\Library\StdDriver\sr   delay
C:   000003CA  A$delayebug\Library\StdDriver\sr   delay
C:   000003CC  A$delayebug\Library\StdDriver\sr   delay
C:   000003CE  A$delayebug\Library\StdDriver\sr   delay
C:   000003D1  A$delayebug\Library\StdDriver\sr   delay
C:   000003D3  A$delayebug\Library\StdDriver\sr   delay
C:   000003D5  A$delayebug\Library\StdDriver\sr   delay
C:   000003D8  A$delayebug\Library\StdDriver\sr   delay
C:   000003DA  A$delayebug\Library\StdDriver\sr   delay
C:   000003DC  A$delayebug\Library\StdDriver\sr   delay
C:   000003DF  A$delayebug\Library\StdDriver\sr   delay
C:   000003E1  A$delayebug\Library\StdDriver\sr   delay
C:   000003E3  A$delayebug\Library\StdDriver\sr   delay
C:   000003E6  A$delayebug\Library\StdDriver\sr   delay
C:   000003E8  A$delayebug\Library\StdDriver\sr   delay
C:   000003EA  A$delayebug\Library\StdDriver\sr   delay
C:   000003ED  A$delayebug\Library\StdDriver\sr   delay
C:   000003EF  A$delayebug\Library\StdDriver\sr   delay
C:   000003F1  A$delayebug\Library\StdDriver\sr   delay
C:   000003F4  A$delayebug\Library\StdDriver\sr   delay
C:   000003F6  A$delayebug\Library\StdDriver\sr   delay
C:   000003F8  A$delayebug\Library\StdDriver\sr   delay
C:   000003F8  C$delay.c$156$2_0$60               delay
C:   000003FB  A$delayebug\Library\StdDriver\sr   delay
C:   000003FD  A$delayebug\Library\StdDriver\sr   delay
C:   00000400  A$delayebug\Library\StdDriver\sr   delay
C:   00000400  C$delay.c$157$2_0$60               delay
C:   00000402  A$delayebug\Library\StdDriver\sr   delay
C:   00000405  A$delayebug\Library\StdDriver\sr   delay
C:   00000408  A$delayebug\Library\StdDriver\sr   delay
C:   00000408  C$delay.c$158$2_0$60               delay
C:   0000040A  A$delayebug\Library\StdDriver\sr   delay
C:   0000040D  A$delayebug\Library\StdDriver\sr   delay
C:   00000410  A$delayebug\Library\StdDriver\sr   delay
C:   00000410  C$delay.c$159$2_0$60               delay
C:   00000412  A$delayebug\Library\StdDriver\sr   delay
C:   00000415  A$delayebug\Library\StdDriver\sr   delay
C:   00000418  A$delayebug\Library\StdDriver\sr   delay
ASxxxx Linker V03.00 + NoICE + sdld,  page 41.
Hexadecimal  [32-Bits]

Area                                    Addr        Size        Decimal Bytes (Attributes)
--------------------------------        ----        ----        ------- ----- ------------
CSEG                                00000066    0000151F =        5407. bytes (REL,CON,CODE)

      Value  Global                              Global Defined In Module
      -----  --------------------------------   ------------------------
C:   00000418  C$delay.c$160$2_0$60               delay
C:   0000041A  A$delayebug\Library\StdDriver\sr   delay
C:   0000041D  A$delayebug\Library\StdDriver\sr   delay
C:   00000420  A$delayebug\Library\StdDriver\sr   delay
C:   00000420  C$delay.c$161$2_0$60               delay
C:   00000422  A$delayebug\Library\StdDriver\sr   delay
C:   00000425  A$delayebug\Library\StdDriver\sr   delay
C:   00000428  A$delayebug\Library\StdDriver\sr   delay
C:   00000428  C$delay.c$162$2_0$60               delay
C:   0000042A  A$delayebug\Library\StdDriver\sr   delay
C:   0000042D  A$delayebug\Library\StdDriver\sr   delay
C:   00000430  A$delayebug\Library\StdDriver\sr   delay
C:   00000430  C$delay.c$163$2_0$60               delay
C:   00000432  A$delayebug\Library\StdDriver\sr   delay
C:   00000435  A$delayebug\Library\StdDriver\sr   delay
C:   00000438  A$delayebug\Library\StdDriver\sr   delay
C:   00000438  C$delay.c$164$1_0$59               delay
C:   00000438  C$delay.c$165$1_0$59               delay
C:   0000043B  A$delayebug\Library\StdDriver\sr   delay
C:   0000043E  A$delayebug\Library\StdDriver\sr   delay
C:   00000441  A$delayebug\Library\StdDriver\sr   delay
C:   00000444  A$delayebug\Library\StdDriver\sr   delay
C:   00000446  A$delayebug\Library\StdDriver\sr   delay
C:   00000448  A$delayebug\Library\StdDriver\sr   delay
C:   0000044A  A$delayebug\Library\StdDriver\sr   delay
C:   0000044B  A$delayebug\Library\StdDriver\sr   delay
C:   0000044E  A$delayebug\Library\StdDriver\sr   delay
C:   00000451  A$delayebug\Library\StdDriver\sr   delay
C:   00000454  A$delayebug\Library\StdDriver\sr   delay
C:   00000457  A$delayebug\Library\StdDriver\sr   delay
C:   0000045A  A$delayebug\Library\StdDriver\sr   delay
C:   0000045D  A$delayebug\Library\StdDriver\sr   delay
C:   00000460  A$delayebug\Library\StdDriver\sr   delay
C:   00000463  A$delayebug\Library\StdDriver\sr   delay
C:   00000466  A$delayebug\Library\StdDriver\sr   delay
C:   00000469  A$delayebug\Library\StdDriver\sr   delay
C:   0000046C  A$delayebug\Library\StdDriver\sr   delay
C:   0000046E  A$delayebug\Library\StdDriver\sr   delay
C:   00000470  A$delayebug\Library\StdDriver\sr   delay
C:   00000472  A$delayebug\Library\StdDriver\sr   delay
C:   00000473  A$delayebug\Library\StdDriver\sr   delay
C:   00000475  A$delayebug\Library\StdDriver\sr   delay
C:   00000476  A$delayebug\Library\StdDriver\sr   delay
C:   00000477  A$delayebug\Library\StdDriver\sr   delay
C:   00000478  A$delayebug\Library\StdDriver\sr   delay
C:   00000479  A$delayebug\Library\StdDriver\sr   delay
C:   00000479  C$delay.c$166$1_0$59               delay
C:   0000047A  A$delayebug\Library\StdDriver\sr   delay
C:   0000047B  A$delayebug\Library\StdDriver\sr   delay
C:   0000047C  A$delayebug\Library\StdDriver\sr   delay
C:   0000047D  A$delayebug\Library\StdDriver\sr   delay
ASxxxx Linker V03.00 + NoICE + sdld,  page 42.
Hexadecimal  [32-Bits]

Area                                    Addr        Size        Decimal Bytes (Attributes)
--------------------------------        ----        ----        ------- ----- ------------
CSEG                                00000066    0000151F =        5407. bytes (REL,CON,CODE)

      Value  Global                              Global Defined In Module
      -----  --------------------------------   ------------------------
C:   0000047E  A$delayebug\Library\StdDriver\sr   delay
C:   0000047F  A$delayebug\Library\StdDriver\sr   delay
C:   00000480  A$delayebug\Library\StdDriver\sr   delay
C:   00000482  A$delayebug\Library\StdDriver\sr   delay
C:   00000483  A$delayebug\Library\StdDriver\sr   delay
C:   00000484  A$delayebug\Library\StdDriver\sr   delay
C:   00000485  A$delayebug\Library\StdDriver\sr   delay
C:   00000487  A$delayebug\Library\StdDriver\sr   delay
C:   00000487  C$delay.c$167$1_0$59               delay
C:   00000489  A$delayebug\Library\StdDriver\sr   delay
C:   0000048B  A$delayebug\Library\StdDriver\sr   delay
C:   0000048C  A$delayebug\Library\StdDriver\sr   delay
C:   0000048D  A$delayebug\Library\StdDriver\sr   delay
C:   0000048F  A$delayebug\Library\StdDriver\sr   delay
C:   0000048F  C$delay.c$169$2_0$61               delay
C:   00000492  A$delayebug\Library\StdDriver\sr   delay
C:   00000495  A$delayebug\Library\StdDriver\sr   delay
C:   00000495  C$delay.c$170$2_0$61               delay
C:   00000497  A$delayebug\Library\StdDriver\sr   delay
C:   00000497  C$delay.c$171$2_0$61               delay
C:   00000499  A$delayebug\Library\StdDriver\sr   delay
C:   00000499  C$delay.c$172$2_0$61               delay
C:   0000049C  A$delayebug\Library\StdDriver\sr   delay
C:   0000049F  A$delayebug\Library\StdDriver\sr   delay
C:   0000049F  C$delay.c$173$2_0$61               delay
C:   000004A1  A$delayebug\Library\StdDriver\sr   delay
C:   000004A3  A$delayebug\Library\StdDriver\sr   delay
C:   000004A6  A$delayebug\Library\StdDriver\sr   delay
C:   000004A9  A$delayebug\Library\StdDriver\sr   delay
C:   000004AC  A$delayebug\Library\StdDriver\sr   delay
C:   000004AE  A$delayebug\Library\StdDriver\sr   delay
C:   000004AE  C$delay.c$174$2_0$61               delay
C:   000004B1  A$delayebug\Library\StdDriver\sr   delay
C:   000004B4  A$delayebug\Library\StdDriver\sr   delay
C:   000004B4  C$delay.c$175$2_0$61               delay
C:   000004B7  A$delayebug\Library\StdDriver\sr   delay
C:   000004BA  A$delayebug\Library\StdDriver\sr   delay
C:   000004BA  C$delay.c$176$2_0$61               delay
C:   000004BB  A$delayebug\Library\StdDriver\sr   delay
C:   000004BE  A$delayebug\Library\StdDriver\sr   delay
C:   000004BF  A$delayebug\Library\StdDriver\sr   delay
C:   000004C1  A$delayebug\Library\StdDriver\sr   delay
C:   000004C1  C$delay.c$178$1_0$59               delay
C:   000004C1  XG$Timer3_Delay$0$0                delay
C:   000004C2  A$sys\Debug\Library\StdDriver\sr   sys
C:   000004C2  C$sys.c$25$0_0$49                  sys
C:   000004C2  G$MODIFY_HIRC$0$0                  sys
C:   000004C2  _MODIFY_HIRC                       sys
C:   000004C4  A$sys\Debug\Library\StdDriver\sr   sys
C:   000004C4  C$sys.c$30$1_0$49                  sys
C:   000004C7  A$sys\Debug\Library\StdDriver\sr   sys
ASxxxx Linker V03.00 + NoICE + sdld,  page 43.
Hexadecimal  [32-Bits]

Area                                    Addr        Size        Decimal Bytes (Attributes)
--------------------------------        ----        ----        ------- ----- ------------
CSEG                                00000066    0000151F =        5407. bytes (REL,CON,CODE)

      Value  Global                              Global Defined In Module
      -----  --------------------------------   ------------------------
C:   000004C7  C$sys.c$31$1_0$49                  sys
C:   000004CA  A$sys\Debug\Library\StdDriver\sr   sys
C:   000004CC  A$sys\Debug\Library\StdDriver\sr   sys
C:   000004CF  A$sys\Debug\Library\StdDriver\sr   sys
C:   000004D1  A$sys\Debug\Library\StdDriver\sr   sys
C:   000004D1  C$sys.c$33$2_0$50                  sys
C:   000004D4  A$sys\Debug\Library\StdDriver\sr   sys
C:   000004D6  A$sys\Debug\Library\StdDriver\sr   sys
C:   000004D6  C$sys.c$34$2_0$50                  sys
C:   000004D9  A$sys\Debug\Library\StdDriver\sr   sys
C:   000004D9  C$sys.c$35$2_0$50                  sys
C:   000004D9  C$sys.c$36$2_0$50                  sys
C:   000004DB  A$sys\Debug\Library\StdDriver\sr   sys
C:   000004DB  C$sys.c$37$2_0$50                  sys
C:   000004DE  A$sys\Debug\Library\StdDriver\sr   sys
C:   000004DE  C$sys.c$38$2_0$50                  sys
C:   000004DE  C$sys.c$39$2_0$50                  sys
C:   000004E0  A$sys\Debug\Library\StdDriver\sr   sys
C:   000004E0  C$sys.c$40$2_0$50                  sys
C:   000004E3  A$sys\Debug\Library\StdDriver\sr   sys
C:   000004E3  C$sys.c$42$1_0$49                  sys
C:   000004E3  C$sys.c$43$1_0$49                  sys
C:   000004E6  A$sys\Debug\Library\StdDriver\sr   sys
C:   000004E8  A$sys\Debug\Library\StdDriver\sr   sys
C:   000004EA  A$sys\Debug\Library\StdDriver\sr   sys
C:   000004EC  A$sys\Debug\Library\StdDriver\sr   sys
C:   000004EF  A$sys\Debug\Library\StdDriver\sr   sys
C:   000004F2  A$sys\Debug\Library\StdDriver\sr   sys
C:   000004F5  A$sys\Debug\Library\StdDriver\sr   sys
C:   000004F7  A$sys\Debug\Library\StdDriver\sr   sys
C:   000004F9  A$sys\Debug\Library\StdDriver\sr   sys
C:   000004F9  C$sys.c$44$1_0$49                  sys
C:   000004FC  A$sys\Debug\Library\StdDriver\sr   sys
C:   000004FC  C$sys.c$45$1_0$49                  sys
C:   000004FF  A$sys\Debug\Library\StdDriver\sr   sys
C:   000004FF  C$sys.c$46$1_0$49                  sys
C:   00000502  A$sys\Debug\Library\StdDriver\sr   sys
C:   00000504  A$sys\Debug\Library\StdDriver\sr   sys
C:   00000506  A$sys\Debug\Library\StdDriver\sr   sys
C:   00000508  A$sys\Debug\Library\StdDriver\sr   sys
C:   0000050B  A$sys\Debug\Library\StdDriver\sr   sys
C:   0000050E  A$sys\Debug\Library\StdDriver\sr   sys
C:   00000511  A$sys\Debug\Library\StdDriver\sr   sys
C:   00000513  A$sys\Debug\Library\StdDriver\sr   sys
C:   00000515  A$sys\Debug\Library\StdDriver\sr   sys
C:   00000515  C$sys.c$47$1_0$49                  sys
C:   00000517  A$sys\Debug\Library\StdDriver\sr   sys
C:   00000517  C$sys.c$48$1_0$49                  sys
C:   00000519  A$sys\Debug\Library\StdDriver\sr   sys
C:   0000051A  A$sys\Debug\Library\StdDriver\sr   sys
C:   0000051C  A$sys\Debug\Library\StdDriver\sr   sys
ASxxxx Linker V03.00 + NoICE + sdld,  page 44.
Hexadecimal  [32-Bits]

Area                                    Addr        Size        Decimal Bytes (Attributes)
--------------------------------        ----        ----        ------- ----- ------------
CSEG                                00000066    0000151F =        5407. bytes (REL,CON,CODE)

      Value  Global                              Global Defined In Module
      -----  --------------------------------   ------------------------
C:   0000051C  C$sys.c$49$1_0$49                  sys
C:   0000051F  A$sys\Debug\Library\StdDriver\sr   sys
C:   00000521  A$sys\Debug\Library\StdDriver\sr   sys
C:   00000523  A$sys\Debug\Library\StdDriver\sr   sys
C:   00000525  A$sys\Debug\Library\StdDriver\sr   sys
C:   00000528  A$sys\Debug\Library\StdDriver\sr   sys
C:   0000052B  A$sys\Debug\Library\StdDriver\sr   sys
C:   0000052E  A$sys\Debug\Library\StdDriver\sr   sys
C:   00000530  A$sys\Debug\Library\StdDriver\sr   sys
C:   00000532  A$sys\Debug\Library\StdDriver\sr   sys
C:   00000532  C$sys.c$50$1_0$49                  sys
C:   00000534  A$sys\Debug\Library\StdDriver\sr   sys
C:   00000534  C$sys.c$51$1_0$49                  sys
C:   00000537  A$sys\Debug\Library\StdDriver\sr   sys
C:   00000539  A$sys\Debug\Library\StdDriver\sr   sys
C:   0000053B  A$sys\Debug\Library\StdDriver\sr   sys
C:   0000053D  A$sys\Debug\Library\StdDriver\sr   sys
C:   00000540  A$sys\Debug\Library\StdDriver\sr   sys
C:   00000543  A$sys\Debug\Library\StdDriver\sr   sys
C:   00000546  A$sys\Debug\Library\StdDriver\sr   sys
C:   00000548  A$sys\Debug\Library\StdDriver\sr   sys
C:   0000054A  A$sys\Debug\Library\StdDriver\sr   sys
C:   0000054A  C$sys.c$52$1_0$49                  sys
C:   0000054D  A$sys\Debug\Library\StdDriver\sr   sys
C:   0000054D  C$sys.c$55$2_0$51                  sys
C:   0000054F  A$sys\Debug\Library\StdDriver\sr   sys
C:   00000551  A$sys\Debug\Library\StdDriver\sr   sys
C:   00000552  A$sys\Debug\Library\StdDriver\sr   sys
C:   00000553  A$sys\Debug\Library\StdDriver\sr   sys
C:   00000554  A$sys\Debug\Library\StdDriver\sr   sys
C:   00000555  A$sys\Debug\Library\StdDriver\sr   sys
C:   00000556  A$sys\Debug\Library\StdDriver\sr   sys
C:   00000557  A$sys\Debug\Library\StdDriver\sr   sys
C:   00000559  A$sys\Debug\Library\StdDriver\sr   sys
C:   0000055C  A$sys\Debug\Library\StdDriver\sr   sys
C:   0000055E  A$sys\Debug\Library\StdDriver\sr   sys
C:   0000055F  A$sys\Debug\Library\StdDriver\sr   sys
C:   00000560  A$sys\Debug\Library\StdDriver\sr   sys
C:   00000561  A$sys\Debug\Library\StdDriver\sr   sys
C:   00000562  A$sys\Debug\Library\StdDriver\sr   sys
C:   00000563  A$sys\Debug\Library\StdDriver\sr   sys
C:   00000564  A$sys\Debug\Library\StdDriver\sr   sys
C:   00000564  C$sys.c$56$2_0$51                  sys
C:   00000565  A$sys\Debug\Library\StdDriver\sr   sys
C:   00000567  A$sys\Debug\Library\StdDriver\sr   sys
C:   00000568  A$sys\Debug\Library\StdDriver\sr   sys
C:   00000569  A$sys\Debug\Library\StdDriver\sr   sys
C:   0000056B  A$sys\Debug\Library\StdDriver\sr   sys
C:   0000056C  A$sys\Debug\Library\StdDriver\sr   sys
C:   0000056C  C$sys.c$57$1_0$49                  sys
C:   0000056E  A$sys\Debug\Library\StdDriver\sr   sys
ASxxxx Linker V03.00 + NoICE + sdld,  page 45.
Hexadecimal  [32-Bits]

Area                                    Addr        Size        Decimal Bytes (Attributes)
--------------------------------        ----        ----        ------- ----- ------------
CSEG                                00000066    0000151F =        5407. bytes (REL,CON,CODE)

      Value  Global                              Global Defined In Module
      -----  --------------------------------   ------------------------
C:   00000570  A$sys\Debug\Library\StdDriver\sr   sys
C:   00000571  A$sys\Debug\Library\StdDriver\sr   sys
C:   00000572  A$sys\Debug\Library\StdDriver\sr   sys
C:   00000572  C$sys.c$58$2_0$51                  sys
C:   00000573  A$sys\Debug\Library\StdDriver\sr   sys
C:   00000574  A$sys\Debug\Library\StdDriver\sr   sys
C:   00000575  A$sys\Debug\Library\StdDriver\sr   sys
C:   00000576  A$sys\Debug\Library\StdDriver\sr   sys
C:   00000577  A$sys\Debug\Library\StdDriver\sr   sys
C:   00000578  A$sys\Debug\Library\StdDriver\sr   sys
C:   00000579  A$sys\Debug\Library\StdDriver\sr   sys
C:   0000057B  A$sys\Debug\Library\StdDriver\sr   sys
C:   0000057B  C$sys.c$62$1_0$49                  sys
C:   0000057B  C$sys.c$63$1_0$49                  sys
C:   0000057E  A$sys\Debug\Library\StdDriver\sr   sys
C:   0000057E  C$sys.c$64$1_0$49                  sys
C:   00000581  A$sys\Debug\Library\StdDriver\sr   sys
C:   00000581  C$sys.c$65$1_0$49                  sys
C:   00000583  A$sys\Debug\Library\StdDriver\sr   sys
C:   00000583  C$sys.c$66$1_0$49                  sys
C:   00000586  A$sys\Debug\Library\StdDriver\sr   sys
C:   00000586  C$sys.c$67$1_0$49                  sys
C:   00000589  A$sys\Debug\Library\StdDriver\sr   sys
C:   00000589  C$sys.c$68$1_0$49                  sys
C:   0000058B  A$sys\Debug\Library\StdDriver\sr   sys
C:   0000058B  C$sys.c$69$1_0$49                  sys
C:   0000058E  A$sys\Debug\Library\StdDriver\sr   sys
C:   00000590  A$sys\Debug\Library\StdDriver\sr   sys
C:   00000592  A$sys\Debug\Library\StdDriver\sr   sys
C:   00000594  A$sys\Debug\Library\StdDriver\sr   sys
C:   00000597  A$sys\Debug\Library\StdDriver\sr   sys
C:   0000059A  A$sys\Debug\Library\StdDriver\sr   sys
C:   0000059D  A$sys\Debug\Library\StdDriver\sr   sys
C:   0000059F  A$sys\Debug\Library\StdDriver\sr   sys
C:   000005A1  A$sys\Debug\Library\StdDriver\sr   sys
C:   000005A1  C$sys.c$70$1_0$49                  sys
C:   000005A4  A$sys\Debug\Library\StdDriver\sr   sys
C:   000005A4  C$sys.c$71$1_0$49                  sys
C:   000005A4  XG$MODIFY_HIRC$0$0                 sys
C:   000005A5  A$sys\Debug\Library\StdDriver\sr   sys
C:   000005A5  C$sys.c$85$1_0$53                  sys
C:   000005A5  C$sys.c$87$1_0$53                  sys
C:   000005A5  G$FsysSelect$0$0                   sys
C:   000005A5  _FsysSelect                        sys
C:   000005A7  A$sys\Debug\Library\StdDriver\sr   sys
C:   000005A8  A$sys\Debug\Library\StdDriver\sr   sys
C:   000005AA  A$sys\Debug\Library\StdDriver\sr   sys
C:   000005AC  A$sys\Debug\Library\StdDriver\sr   sys
C:   000005AF  A$sys\Debug\Library\StdDriver\sr   sys
C:   000005B0  A$sys\Debug\Library\StdDriver\sr   sys
C:   000005B1  A$sys\Debug\Library\StdDriver\sr   sys
ASxxxx Linker V03.00 + NoICE + sdld,  page 46.
Hexadecimal  [32-Bits]

Area                                    Addr        Size        Decimal Bytes (Attributes)
--------------------------------        ----        ----        ------- ----- ------------
CSEG                                00000066    0000151F =        5407. bytes (REL,CON,CODE)

      Value  Global                              Global Defined In Module
      -----  --------------------------------   ------------------------
C:   000005B2  A$sys\Debug\Library\StdDriver\sr   sys
C:   000005B5  A$sys\Debug\Library\StdDriver\sr   sys
C:   000005B6  A$sys\Debug\Library\StdDriver\sr   sys
C:   000005B9  A$sys\Debug\Library\StdDriver\sr   sys
C:   000005BC  A$sys\Debug\Library\StdDriver\sr   sys
C:   000005BF  A$sys\Debug\Library\StdDriver\sr   sys
C:   000005C2  A$sys\Debug\Library\StdDriver\sr   sys
C:   000005C5  A$sys\Debug\Library\StdDriver\sr   sys
C:   000005C8  A$sys\Debug\Library\StdDriver\sr   sys
C:   000005C8  C$sys.c$90$2_0$54                  sys
C:   000005C8  C$sys.c$91$2_0$54                  sys
C:   000005CB  A$sys\Debug\Library\StdDriver\sr   sys
C:   000005CE  A$sys\Debug\Library\StdDriver\sr   sys
C:   000005CE  C$sys.c$92$2_0$54                  sys
C:   000005D1  A$sys\Debug\Library\StdDriver\sr   sys
C:   000005D4  A$sys\Debug\Library\StdDriver\sr   sys
C:   000005D4  C$sys.c$93$2_0$54                  sys
C:   000005D7  A$sys\Debug\Library\StdDriver\sr   sys
C:   000005DA  A$sys\Debug\Library\StdDriver\sr   sys
C:   000005DA  C$sys.c$94$2_0$54                  sys
C:   000005DD  A$sys\Debug\Library\StdDriver\sr   sys
C:   000005E0  A$sys\Debug\Library\StdDriver\sr   sys
C:   000005E0  C$sys.c$95$2_0$54                  sys
C:   000005E3  A$sys\Debug\Library\StdDriver\sr   sys
C:   000005E5  A$sys\Debug\Library\StdDriver\sr   sys
C:   000005E7  A$sys\Debug\Library\StdDriver\sr   sys
C:   000005E9  A$sys\Debug\Library\StdDriver\sr   sys
C:   000005EC  A$sys\Debug\Library\StdDriver\sr   sys
C:   000005EF  A$sys\Debug\Library\StdDriver\sr   sys
C:   000005F2  A$sys\Debug\Library\StdDriver\sr   sys
C:   000005F4  A$sys\Debug\Library\StdDriver\sr   sys
C:   000005F6  A$sys\Debug\Library\StdDriver\sr   sys
C:   000005F6  C$sys.c$96$2_0$54                  sys
C:   000005F9  A$sys\Debug\Library\StdDriver\sr   sys
C:   000005F9  C$sys.c$100$2_0$54                 sys
C:   000005F9  C$sys.c$99$2_0$54                  sys
C:   000005FC  A$sys\Debug\Library\StdDriver\sr   sys
C:   000005FF  A$sys\Debug\Library\StdDriver\sr   sys
C:   000005FF  C$sys.c$101$2_0$54                 sys
C:   00000602  A$sys\Debug\Library\StdDriver\sr   sys
C:   00000605  A$sys\Debug\Library\StdDriver\sr   sys
C:   00000605  C$sys.c$102$2_0$54                 sys
C:   00000608  A$sys\Debug\Library\StdDriver\sr   sys
C:   00000608  C$sys.c$105$2_0$54                 sys
C:   00000608  C$sys.c$106$2_0$54                 sys
C:   0000060B  A$sys\Debug\Library\StdDriver\sr   sys
C:   0000060E  A$sys\Debug\Library\StdDriver\sr   sys
C:   0000060E  C$sys.c$107$2_0$54                 sys
C:   00000611  A$sys\Debug\Library\StdDriver\sr   sys
C:   00000614  A$sys\Debug\Library\StdDriver\sr   sys
C:   00000614  C$sys.c$108$2_0$54                 sys
ASxxxx Linker V03.00 + NoICE + sdld,  page 47.
Hexadecimal  [32-Bits]

Area                                    Addr        Size        Decimal Bytes (Attributes)
--------------------------------        ----        ----        ------- ----- ------------
CSEG                                00000066    0000151F =        5407. bytes (REL,CON,CODE)

      Value  Global                              Global Defined In Module
      -----  --------------------------------   ------------------------
C:   00000617  A$sys\Debug\Library\StdDriver\sr   sys
C:   00000619  A$sys\Debug\Library\StdDriver\sr   sys
C:   0000061B  A$sys\Debug\Library\StdDriver\sr   sys
C:   0000061D  A$sys\Debug\Library\StdDriver\sr   sys
C:   00000620  A$sys\Debug\Library\StdDriver\sr   sys
C:   00000623  A$sys\Debug\Library\StdDriver\sr   sys
C:   00000626  A$sys\Debug\Library\StdDriver\sr   sys
C:   00000628  A$sys\Debug\Library\StdDriver\sr   sys
C:   0000062A  A$sys\Debug\Library\StdDriver\sr   sys
C:   0000062A  C$sys.c$109$2_0$54                 sys
C:   0000062A  C$sys.c$112$2_0$54                 sys
C:   0000062C  A$sys\Debug\Library\StdDriver\sr   sys
C:   0000062C  C$sys.c$113$2_0$54                 sys
C:   0000062F  A$sys\Debug\Library\StdDriver\sr   sys
C:   00000632  A$sys\Debug\Library\StdDriver\sr   sys
C:   00000632  C$sys.c$114$2_0$54                 sys
C:   00000635  A$sys\Debug\Library\StdDriver\sr   sys
C:   00000638  A$sys\Debug\Library\StdDriver\sr   sys
C:   00000638  C$sys.c$115$2_0$54                 sys
C:   0000063B  A$sys\Debug\Library\StdDriver\sr   sys
C:   0000063E  A$sys\Debug\Library\StdDriver\sr   sys
C:   0000063E  C$sys.c$116$2_0$54                 sys
C:   00000641  A$sys\Debug\Library\StdDriver\sr   sys
C:   00000644  A$sys\Debug\Library\StdDriver\sr   sys
C:   00000644  C$sys.c$117$2_0$54                 sys
C:   00000647  A$sys\Debug\Library\StdDriver\sr   sys
C:   00000649  A$sys\Debug\Library\StdDriver\sr   sys
C:   0000064B  A$sys\Debug\Library\StdDriver\sr   sys
C:   0000064D  A$sys\Debug\Library\StdDriver\sr   sys
C:   00000650  A$sys\Debug\Library\StdDriver\sr   sys
C:   00000653  A$sys\Debug\Library\StdDriver\sr   sys
C:   00000656  A$sys\Debug\Library\StdDriver\sr   sys
C:   00000658  A$sys\Debug\Library\StdDriver\sr   sys
C:   0000065A  A$sys\Debug\Library\StdDriver\sr   sys
C:   0000065A  C$sys.c$118$2_0$54                 sys
C:   0000065A  C$sys.c$121$2_0$54                 sys
C:   0000065C  A$sys\Debug\Library\StdDriver\sr   sys
C:   0000065C  C$sys.c$122$2_0$54                 sys
C:   0000065F  A$sys\Debug\Library\StdDriver\sr   sys
C:   00000662  A$sys\Debug\Library\StdDriver\sr   sys
C:   00000662  C$sys.c$123$2_0$54                 sys
C:   00000665  A$sys\Debug\Library\StdDriver\sr   sys
C:   00000668  A$sys\Debug\Library\StdDriver\sr   sys
C:   00000668  C$sys.c$124$2_0$54                 sys
C:   0000066B  A$sys\Debug\Library\StdDriver\sr   sys
C:   0000066E  A$sys\Debug\Library\StdDriver\sr   sys
C:   0000066E  C$sys.c$125$2_0$54                 sys
C:   00000671  A$sys\Debug\Library\StdDriver\sr   sys
C:   00000674  A$sys\Debug\Library\StdDriver\sr   sys
C:   00000674  C$sys.c$126$2_0$54                 sys
C:   00000677  A$sys\Debug\Library\StdDriver\sr   sys
ASxxxx Linker V03.00 + NoICE + sdld,  page 48.
Hexadecimal  [32-Bits]

Area                                    Addr        Size        Decimal Bytes (Attributes)
--------------------------------        ----        ----        ------- ----- ------------
CSEG                                00000066    0000151F =        5407. bytes (REL,CON,CODE)

      Value  Global                              Global Defined In Module
      -----  --------------------------------   ------------------------
C:   00000679  A$sys\Debug\Library\StdDriver\sr   sys
C:   0000067B  A$sys\Debug\Library\StdDriver\sr   sys
C:   0000067D  A$sys\Debug\Library\StdDriver\sr   sys
C:   00000680  A$sys\Debug\Library\StdDriver\sr   sys
C:   00000683  A$sys\Debug\Library\StdDriver\sr   sys
C:   00000686  A$sys\Debug\Library\StdDriver\sr   sys
C:   00000688  A$sys\Debug\Library\StdDriver\sr   sys
C:   0000068A  A$sys\Debug\Library\StdDriver\sr   sys
C:   0000068A  C$sys.c$128$1_0$53                 sys
C:   0000068A  C$sys.c$129$1_0$53                 sys
C:   0000068A  XG$FsysSelect$0$0                  sys
C:   0000068B  A$sys\Debug\Library\StdDriver\sr   sys
C:   0000068B  C$sys.c$131$1_0$56                 sys
C:   0000068B  C$sys.c$133$1_0$56                 sys
C:   0000068B  G$ClockEnable$0$0                  sys
C:   0000068B  _ClockEnable                       sys
C:   0000068D  A$sys\Debug\Library\StdDriver\sr   sys
C:   0000068E  A$sys\Debug\Library\StdDriver\sr   sys
C:   00000690  A$sys\Debug\Library\StdDriver\sr   sys
C:   00000692  A$sys\Debug\Library\StdDriver\sr   sys
C:   00000695  A$sys\Debug\Library\StdDriver\sr   sys
C:   00000696  A$sys\Debug\Library\StdDriver\sr   sys
C:   00000697  A$sys\Debug\Library\StdDriver\sr   sys
C:   00000698  A$sys\Debug\Library\StdDriver\sr   sys
C:   0000069B  A$sys\Debug\Library\StdDriver\sr   sys
C:   0000069C  A$sys\Debug\Library\StdDriver\sr   sys
C:   0000069F  A$sys\Debug\Library\StdDriver\sr   sys
C:   000006A2  A$sys\Debug\Library\StdDriver\sr   sys
C:   000006A5  A$sys\Debug\Library\StdDriver\sr   sys
C:   000006A8  A$sys\Debug\Library\StdDriver\sr   sys
C:   000006AB  A$sys\Debug\Library\StdDriver\sr   sys
C:   000006AE  A$sys\Debug\Library\StdDriver\sr   sys
C:   000006AE  C$sys.c$136$2_0$57                 sys
C:   000006AE  C$sys.c$137$2_0$57                 sys
C:   000006B1  A$sys\Debug\Library\StdDriver\sr   sys
C:   000006B3  A$sys\Debug\Library\StdDriver\sr   sys
C:   000006B5  A$sys\Debug\Library\StdDriver\sr   sys
C:   000006B7  A$sys\Debug\Library\StdDriver\sr   sys
C:   000006BA  A$sys\Debug\Library\StdDriver\sr   sys
C:   000006BD  A$sys\Debug\Library\StdDriver\sr   sys
C:   000006C0  A$sys\Debug\Library\StdDriver\sr   sys
C:   000006C2  A$sys\Debug\Library\StdDriver\sr   sys
C:   000006C4  A$sys\Debug\Library\StdDriver\sr   sys
C:   000006C4  C$sys.c$138$2_0$57                 sys
C:   000006C7  A$sys\Debug\Library\StdDriver\sr   sys
C:   000006C9  A$sys\Debug\Library\StdDriver\sr   sys
C:   000006CB  A$sys\Debug\Library\StdDriver\sr   sys
C:   000006CD  A$sys\Debug\Library\StdDriver\sr   sys
C:   000006D0  A$sys\Debug\Library\StdDriver\sr   sys
C:   000006D3  A$sys\Debug\Library\StdDriver\sr   sys
C:   000006D6  A$sys\Debug\Library\StdDriver\sr   sys
ASxxxx Linker V03.00 + NoICE + sdld,  page 49.
Hexadecimal  [32-Bits]

Area                                    Addr        Size        Decimal Bytes (Attributes)
--------------------------------        ----        ----        ------- ----- ------------
CSEG                                00000066    0000151F =        5407. bytes (REL,CON,CODE)

      Value  Global                              Global Defined In Module
      -----  --------------------------------   ------------------------
C:   000006D8  A$sys\Debug\Library\StdDriver\sr   sys
C:   000006DA  A$sys\Debug\Library\StdDriver\sr   sys
C:   000006DA  C$sys.c$139$2_0$57                 sys
C:   000006DC  A$sys\Debug\Library\StdDriver\sr   sys
C:   000006DE  A$sys\Debug\Library\StdDriver\sr   sys
C:   000006DE  C$sys.c$143$2_0$57                 sys
C:   000006E0  A$sys\Debug\Library\StdDriver\sr   sys
C:   000006E0  C$sys.c$144$2_0$57                 sys
C:   000006E3  A$sys\Debug\Library\StdDriver\sr   sys
C:   000006E5  A$sys\Debug\Library\StdDriver\sr   sys
C:   000006E7  A$sys\Debug\Library\StdDriver\sr   sys
C:   000006E9  A$sys\Debug\Library\StdDriver\sr   sys
C:   000006EC  A$sys\Debug\Library\StdDriver\sr   sys
C:   000006EF  A$sys\Debug\Library\StdDriver\sr   sys
C:   000006F2  A$sys\Debug\Library\StdDriver\sr   sys
C:   000006F4  A$sys\Debug\Library\StdDriver\sr   sys
C:   000006F6  A$sys\Debug\Library\StdDriver\sr   sys
C:   000006F6  C$sys.c$145$2_0$57                 sys
C:   000006F8  A$sys\Debug\Library\StdDriver\sr   sys
C:   000006FA  A$sys\Debug\Library\StdDriver\sr   sys
C:   000006FD  A$sys\Debug\Library\StdDriver\sr   sys
C:   00000700  A$sys\Debug\Library\StdDriver\sr   sys
C:   00000703  A$sys\Debug\Library\StdDriver\sr   sys
C:   00000705  A$sys\Debug\Library\StdDriver\sr   sys
C:   00000705  C$sys.c$149$2_0$57                 sys
C:   00000708  A$sys\Debug\Library\StdDriver\sr   sys
C:   00000708  C$sys.c$150$2_0$57                 sys
C:   0000070B  A$sys\Debug\Library\StdDriver\sr   sys
C:   0000070D  A$sys\Debug\Library\StdDriver\sr   sys
C:   0000070F  A$sys\Debug\Library\StdDriver\sr   sys
C:   00000711  A$sys\Debug\Library\StdDriver\sr   sys
C:   00000714  A$sys\Debug\Library\StdDriver\sr   sys
C:   00000717  A$sys\Debug\Library\StdDriver\sr   sys
C:   0000071A  A$sys\Debug\Library\StdDriver\sr   sys
C:   0000071C  A$sys\Debug\Library\StdDriver\sr   sys
C:   0000071E  A$sys\Debug\Library\StdDriver\sr   sys
C:   0000071E  C$sys.c$151$2_0$57                 sys
C:   00000720  A$sys\Debug\Library\StdDriver\sr   sys
C:   00000722  A$sys\Debug\Library\StdDriver\sr   sys
C:   00000725  A$sys\Debug\Library\StdDriver\sr   sys
C:   00000728  A$sys\Debug\Library\StdDriver\sr   sys
C:   0000072B  A$sys\Debug\Library\StdDriver\sr   sys
C:   0000072D  A$sys\Debug\Library\StdDriver\sr   sys
C:   0000072D  C$sys.c$155$2_0$57                 sys
C:   0000072F  A$sys\Debug\Library\StdDriver\sr   sys
C:   0000072F  C$sys.c$156$2_0$57                 sys
C:   00000732  A$sys\Debug\Library\StdDriver\sr   sys
C:   00000734  A$sys\Debug\Library\StdDriver\sr   sys
C:   00000736  A$sys\Debug\Library\StdDriver\sr   sys
C:   00000738  A$sys\Debug\Library\StdDriver\sr   sys
C:   0000073B  A$sys\Debug\Library\StdDriver\sr   sys
ASxxxx Linker V03.00 + NoICE + sdld,  page 50.
Hexadecimal  [32-Bits]

Area                                    Addr        Size        Decimal Bytes (Attributes)
--------------------------------        ----        ----        ------- ----- ------------
CSEG                                00000066    0000151F =        5407. bytes (REL,CON,CODE)

      Value  Global                              Global Defined In Module
      -----  --------------------------------   ------------------------
C:   0000073E  A$sys\Debug\Library\StdDriver\sr   sys
C:   00000741  A$sys\Debug\Library\StdDriver\sr   sys
C:   00000743  A$sys\Debug\Library\StdDriver\sr   sys
C:   00000745  A$sys\Debug\Library\StdDriver\sr   sys
C:   00000745  C$sys.c$157$2_0$57                 sys
C:   00000748  A$sys\Debug\Library\StdDriver\sr   sys
C:   0000074A  A$sys\Debug\Library\StdDriver\sr   sys
C:   0000074C  A$sys\Debug\Library\StdDriver\sr   sys
C:   0000074E  A$sys\Debug\Library\StdDriver\sr   sys
C:   00000751  A$sys\Debug\Library\StdDriver\sr   sys
C:   00000754  A$sys\Debug\Library\StdDriver\sr   sys
C:   00000757  A$sys\Debug\Library\StdDriver\sr   sys
C:   00000759  A$sys\Debug\Library\StdDriver\sr   sys
C:   0000075B  A$sys\Debug\Library\StdDriver\sr   sys
C:   0000075B  C$sys.c$158$2_0$57                 sys
C:   0000075D  A$sys\Debug\Library\StdDriver\sr   sys
C:   0000075F  A$sys\Debug\Library\StdDriver\sr   sys
C:   00000762  A$sys\Debug\Library\StdDriver\sr   sys
C:   00000765  A$sys\Debug\Library\StdDriver\sr   sys
C:   00000768  A$sys\Debug\Library\StdDriver\sr   sys
C:   00000768  C$sys.c$162$2_0$57                 sys
C:   0000076A  A$sys\Debug\Library\StdDriver\sr   sys
C:   0000076A  C$sys.c$163$2_0$57                 sys
C:   0000076D  A$sys\Debug\Library\StdDriver\sr   sys
C:   0000076F  A$sys\Debug\Library\StdDriver\sr   sys
C:   00000771  A$sys\Debug\Library\StdDriver\sr   sys
C:   00000773  A$sys\Debug\Library\StdDriver\sr   sys
C:   00000776  A$sys\Debug\Library\StdDriver\sr   sys
C:   00000779  A$sys\Debug\Library\StdDriver\sr   sys
C:   0000077C  A$sys\Debug\Library\StdDriver\sr   sys
C:   0000077E  A$sys\Debug\Library\StdDriver\sr   sys
C:   00000780  A$sys\Debug\Library\StdDriver\sr   sys
C:   00000780  C$sys.c$164$2_0$57                 sys
C:   00000783  A$sys\Debug\Library\StdDriver\sr   sys
C:   00000785  A$sys\Debug\Library\StdDriver\sr   sys
C:   00000787  A$sys\Debug\Library\StdDriver\sr   sys
C:   00000789  A$sys\Debug\Library\StdDriver\sr   sys
C:   0000078C  A$sys\Debug\Library\StdDriver\sr   sys
C:   0000078F  A$sys\Debug\Library\StdDriver\sr   sys
C:   00000792  A$sys\Debug\Library\StdDriver\sr   sys
C:   00000794  A$sys\Debug\Library\StdDriver\sr   sys
C:   00000796  A$sys\Debug\Library\StdDriver\sr   sys
C:   00000796  C$sys.c$165$2_0$57                 sys
C:   00000798  A$sys\Debug\Library\StdDriver\sr   sys
C:   0000079A  A$sys\Debug\Library\StdDriver\sr   sys
C:   0000079D  A$sys\Debug\Library\StdDriver\sr   sys
C:   000007A0  A$sys\Debug\Library\StdDriver\sr   sys
C:   000007A3  A$sys\Debug\Library\StdDriver\sr   sys
C:   000007A5  A$sys\Debug\Library\StdDriver\sr   sys
C:   000007A5  C$sys.c$167$1_0$56                 sys
C:   000007A5  C$sys.c$168$1_0$56                 sys
ASxxxx Linker V03.00 + NoICE + sdld,  page 51.
Hexadecimal  [32-Bits]

Area                                    Addr        Size        Decimal Bytes (Attributes)
--------------------------------        ----        ----        ------- ----- ------------
CSEG                                00000066    0000151F =        5407. bytes (REL,CON,CODE)

      Value  Global                              Global Defined In Module
      -----  --------------------------------   ------------------------
C:   000007A5  XG$ClockEnable$0$0                 sys
C:   000007A6  A$sys\Debug\Library\StdDriver\sr   sys
C:   000007A6  C$sys.c$170$1_0$59                 sys
C:   000007A6  G$ClockDisable$0$0                 sys
C:   000007A6  _ClockDisable                      sys
C:   000007A8  A$sys\Debug\Library\StdDriver\sr   sys
C:   000007A8  C$sys.c$172$2_0$59                 sys
C:   000007AA  A$sys\Debug\Library\StdDriver\sr   sys
C:   000007AA  C$sys.c$174$1_0$59                 sys
C:   000007AC  A$sys\Debug\Library\StdDriver\sr   sys
C:   000007AC  C$sys.c$175$1_0$59                 sys
C:   000007AD  A$sys\Debug\Library\StdDriver\sr   sys
C:   000007AF  A$sys\Debug\Library\StdDriver\sr   sys
C:   000007B1  A$sys\Debug\Library\StdDriver\sr   sys
C:   000007B2  A$sys\Debug\Library\StdDriver\sr   sys
C:   000007B3  A$sys\Debug\Library\StdDriver\sr   sys
C:   000007B3  C$sys.c$178$2_0$60                 sys
C:   000007B6  A$sys\Debug\Library\StdDriver\sr   sys
C:   000007B7  A$sys\Debug\Library\StdDriver\sr   sys
C:   000007B9  A$sys\Debug\Library\StdDriver\sr   sys
C:   000007BB  A$sys\Debug\Library\StdDriver\sr   sys
C:   000007BD  A$sys\Debug\Library\StdDriver\sr   sys
C:   000007BF  A$sys\Debug\Library\StdDriver\sr   sys
C:   000007C1  A$sys\Debug\Library\StdDriver\sr   sys
C:   000007C3  A$sys\Debug\Library\StdDriver\sr   sys
C:   000007C3  C$sys.c$179$2_0$60                 sys
C:   000007C5  A$sys\Debug\Library\StdDriver\sr   sys
C:   000007C5  C$sys.c$180$2_0$60                 sys
C:   000007C5  C$sys.c$182$2_0$60                 sys
C:   000007C7  A$sys\Debug\Library\StdDriver\sr   sys
C:   000007C7  C$sys.c$183$2_0$60                 sys
C:   000007CA  A$sys\Debug\Library\StdDriver\sr   sys
C:   000007CC  A$sys\Debug\Library\StdDriver\sr   sys
C:   000007CE  A$sys\Debug\Library\StdDriver\sr   sys
C:   000007D0  A$sys\Debug\Library\StdDriver\sr   sys
C:   000007D3  A$sys\Debug\Library\StdDriver\sr   sys
C:   000007D6  A$sys\Debug\Library\StdDriver\sr   sys
C:   000007D9  A$sys\Debug\Library\StdDriver\sr   sys
C:   000007DB  A$sys\Debug\Library\StdDriver\sr   sys
C:   000007DD  A$sys\Debug\Library\StdDriver\sr   sys
C:   000007DD  C$sys.c$184$2_0$60                 sys
C:   000007DD  C$sys.c$186$2_0$60                 sys
C:   000007DF  A$sys\Debug\Library\StdDriver\sr   sys
C:   000007DF  C$sys.c$187$2_0$60                 sys
C:   000007E2  A$sys\Debug\Library\StdDriver\sr   sys
C:   000007E4  A$sys\Debug\Library\StdDriver\sr   sys
C:   000007E6  A$sys\Debug\Library\StdDriver\sr   sys
C:   000007E8  A$sys\Debug\Library\StdDriver\sr   sys
C:   000007EB  A$sys\Debug\Library\StdDriver\sr   sys
C:   000007EE  A$sys\Debug\Library\StdDriver\sr   sys
C:   000007F1  A$sys\Debug\Library\StdDriver\sr   sys
ASxxxx Linker V03.00 + NoICE + sdld,  page 52.
Hexadecimal  [32-Bits]

Area                                    Addr        Size        Decimal Bytes (Attributes)
--------------------------------        ----        ----        ------- ----- ------------
CSEG                                00000066    0000151F =        5407. bytes (REL,CON,CODE)

      Value  Global                              Global Defined In Module
      -----  --------------------------------   ------------------------
C:   000007F3  A$sys\Debug\Library\StdDriver\sr   sys
C:   000007F5  A$sys\Debug\Library\StdDriver\sr   sys
C:   000007F5  C$sys.c$188$2_0$60                 sys
C:   000007F5  C$sys.c$190$2_0$60                 sys
C:   000007F7  A$sys\Debug\Library\StdDriver\sr   sys
C:   000007F7  C$sys.c$191$2_0$60                 sys
C:   000007F9  A$sys\Debug\Library\StdDriver\sr   sys
C:   000007F9  C$sys.c$192$2_0$60                 sys
C:   000007F9  C$sys.c$194$2_0$60                 sys
C:   000007FB  A$sys\Debug\Library\StdDriver\sr   sys
C:   000007FB  C$sys.c$195$2_0$60                 sys
C:   000007FD  A$sys\Debug\Library\StdDriver\sr   sys
C:   000007FD  C$sys.c$197$1_0$59                 sys
C:   000007FD  C$sys.c$198$1_0$59                 sys
C:   000007FE  A$sys\Debug\Library\StdDriver\sr   sys
C:   00000800  A$sys\Debug\Library\StdDriver\sr   sys
C:   00000800  C$sys.c$200$2_0$61                 sys
C:   00000803  A$sys\Debug\Library\StdDriver\sr   sys
C:   00000805  A$sys\Debug\Library\StdDriver\sr   sys
C:   00000807  A$sys\Debug\Library\StdDriver\sr   sys
C:   00000809  A$sys\Debug\Library\StdDriver\sr   sys
C:   0000080C  A$sys\Debug\Library\StdDriver\sr   sys
C:   0000080F  A$sys\Debug\Library\StdDriver\sr   sys
C:   00000812  A$sys\Debug\Library\StdDriver\sr   sys
C:   00000814  A$sys\Debug\Library\StdDriver\sr   sys
C:   00000816  A$sys\Debug\Library\StdDriver\sr   sys
C:   00000816  C$sys.c$201$1_0$59                 sys
C:   00000816  C$sys.c$204$1_0$59                 sys
C:   00000816  XG$ClockDisable$0$0                sys
C:   00000817  A$sys\Debug\Library\StdDriver\sr   sys
C:   00000817  C$sys.c$206$1_0$63                 sys
C:   00000817  G$ClockSwitch$0$0                  sys
C:   00000817  _ClockSwitch                       sys
C:   00000819  A$sys\Debug\Library\StdDriver\sr   sys
C:   00000819  C$sys.c$208$2_0$63                 sys
C:   0000081B  A$sys\Debug\Library\StdDriver\sr   sys
C:   0000081B  C$sys.c$209$1_0$63                 sys
C:   0000081D  A$sys\Debug\Library\StdDriver\sr   sys
C:   0000081D  C$sys.c$210$1_0$63                 sys
C:   0000081F  A$sys\Debug\Library\StdDriver\sr   sys
C:   00000821  A$sys\Debug\Library\StdDriver\sr   sys
C:   00000823  A$sys\Debug\Library\StdDriver\sr   sys
C:   00000823  C$sys.c$211$1_0$63                 sys
C:   00000824  A$sys\Debug\Library\StdDriver\sr   sys
C:   00000826  A$sys\Debug\Library\StdDriver\sr   sys
C:   00000828  A$sys\Debug\Library\StdDriver\sr   sys
C:   0000082B  A$sys\Debug\Library\StdDriver\sr   sys
C:   0000082C  A$sys\Debug\Library\StdDriver\sr   sys
C:   0000082D  A$sys\Debug\Library\StdDriver\sr   sys
C:   0000082D  C$sys.c$214$2_0$64                 sys
C:   00000830  A$sys\Debug\Library\StdDriver\sr   sys
ASxxxx Linker V03.00 + NoICE + sdld,  page 53.
Hexadecimal  [32-Bits]

Area                                    Addr        Size        Decimal Bytes (Attributes)
--------------------------------        ----        ----        ------- ----- ------------
CSEG                                00000066    0000151F =        5407. bytes (REL,CON,CODE)

      Value  Global                              Global Defined In Module
      -----  --------------------------------   ------------------------
C:   00000831  A$sys\Debug\Library\StdDriver\sr   sys
C:   00000833  A$sys\Debug\Library\StdDriver\sr   sys
C:   00000835  A$sys\Debug\Library\StdDriver\sr   sys
C:   00000837  A$sys\Debug\Library\StdDriver\sr   sys
C:   00000839  A$sys\Debug\Library\StdDriver\sr   sys
C:   0000083B  A$sys\Debug\Library\StdDriver\sr   sys
C:   0000083D  A$sys\Debug\Library\StdDriver\sr   sys
C:   0000083D  C$sys.c$215$2_0$64                 sys
C:   0000083F  A$sys\Debug\Library\StdDriver\sr   sys
C:   0000083F  C$sys.c$216$2_0$64                 sys
C:   0000083F  C$sys.c$218$2_0$64                 sys
C:   00000841  A$sys\Debug\Library\StdDriver\sr   sys
C:   00000841  C$sys.c$219$2_0$64                 sys
C:   00000844  A$sys\Debug\Library\StdDriver\sr   sys
C:   00000846  A$sys\Debug\Library\StdDriver\sr   sys
C:   00000848  A$sys\Debug\Library\StdDriver\sr   sys
C:   0000084A  A$sys\Debug\Library\StdDriver\sr   sys
C:   0000084D  A$sys\Debug\Library\StdDriver\sr   sys
C:   00000850  A$sys\Debug\Library\StdDriver\sr   sys
C:   00000853  A$sys\Debug\Library\StdDriver\sr   sys
C:   00000855  A$sys\Debug\Library\StdDriver\sr   sys
C:   00000857  A$sys\Debug\Library\StdDriver\sr   sys
C:   00000857  C$sys.c$220$2_0$64                 sys
C:   0000085A  A$sys\Debug\Library\StdDriver\sr   sys
C:   0000085C  A$sys\Debug\Library\StdDriver\sr   sys
C:   0000085E  A$sys\Debug\Library\StdDriver\sr   sys
C:   00000860  A$sys\Debug\Library\StdDriver\sr   sys
C:   00000863  A$sys\Debug\Library\StdDriver\sr   sys
C:   00000866  A$sys\Debug\Library\StdDriver\sr   sys
C:   00000869  A$sys\Debug\Library\StdDriver\sr   sys
C:   0000086B  A$sys\Debug\Library\StdDriver\sr   sys
C:   0000086D  A$sys\Debug\Library\StdDriver\sr   sys
C:   0000086D  C$sys.c$221$2_0$64                 sys
C:   0000086D  C$sys.c$223$2_0$64                 sys
C:   0000086F  A$sys\Debug\Library\StdDriver\sr   sys
C:   0000086F  C$sys.c$224$2_0$64                 sys
C:   00000872  A$sys\Debug\Library\StdDriver\sr   sys
C:   00000874  A$sys\Debug\Library\StdDriver\sr   sys
C:   00000876  A$sys\Debug\Library\StdDriver\sr   sys
C:   00000878  A$sys\Debug\Library\StdDriver\sr   sys
C:   0000087B  A$sys\Debug\Library\StdDriver\sr   sys
C:   0000087E  A$sys\Debug\Library\StdDriver\sr   sys
C:   00000881  A$sys\Debug\Library\StdDriver\sr   sys
C:   00000883  A$sys\Debug\Library\StdDriver\sr   sys
C:   00000885  A$sys\Debug\Library\StdDriver\sr   sys
C:   00000885  C$sys.c$225$2_0$64                 sys
C:   00000888  A$sys\Debug\Library\StdDriver\sr   sys
C:   0000088A  A$sys\Debug\Library\StdDriver\sr   sys
C:   0000088C  A$sys\Debug\Library\StdDriver\sr   sys
C:   0000088E  A$sys\Debug\Library\StdDriver\sr   sys
C:   00000891  A$sys\Debug\Library\StdDriver\sr   sys
ASxxxx Linker V03.00 + NoICE + sdld,  page 54.
Hexadecimal  [32-Bits]

Area                                    Addr        Size        Decimal Bytes (Attributes)
--------------------------------        ----        ----        ------- ----- ------------
CSEG                                00000066    0000151F =        5407. bytes (REL,CON,CODE)

      Value  Global                              Global Defined In Module
      -----  --------------------------------   ------------------------
C:   00000894  A$sys\Debug\Library\StdDriver\sr   sys
C:   00000897  A$sys\Debug\Library\StdDriver\sr   sys
C:   00000899  A$sys\Debug\Library\StdDriver\sr   sys
C:   0000089B  A$sys\Debug\Library\StdDriver\sr   sys
C:   0000089B  C$sys.c$226$2_0$64                 sys
C:   0000089B  C$sys.c$228$2_0$64                 sys
C:   0000089D  A$sys\Debug\Library\StdDriver\sr   sys
C:   0000089D  C$sys.c$229$2_0$64                 sys
C:   0000089F  A$sys\Debug\Library\StdDriver\sr   sys
C:   0000089F  C$sys.c$230$2_0$64                 sys
C:   0000089F  C$sys.c$232$2_0$64                 sys
C:   000008A1  A$sys\Debug\Library\StdDriver\sr   sys
C:   000008A1  C$sys.c$233$2_0$64                 sys
C:   000008A3  A$sys\Debug\Library\StdDriver\sr   sys
C:   000008A3  C$sys.c$235$1_0$63                 sys
C:   000008A3  C$sys.c$236$1_0$63                 sys
C:   000008A4  A$sys\Debug\Library\StdDriver\sr   sys
C:   000008A6  A$sys\Debug\Library\StdDriver\sr   sys
C:   000008A6  C$sys.c$238$2_0$65                 sys
C:   000008A9  A$sys\Debug\Library\StdDriver\sr   sys
C:   000008AB  A$sys\Debug\Library\StdDriver\sr   sys
C:   000008AD  A$sys\Debug\Library\StdDriver\sr   sys
C:   000008AF  A$sys\Debug\Library\StdDriver\sr   sys
C:   000008B2  A$sys\Debug\Library\StdDriver\sr   sys
C:   000008B5  A$sys\Debug\Library\StdDriver\sr   sys
C:   000008B8  A$sys\Debug\Library\StdDriver\sr   sys
C:   000008BA  A$sys\Debug\Library\StdDriver\sr   sys
C:   000008BC  A$sys\Debug\Library\StdDriver\sr   sys
C:   000008BC  C$sys.c$239$2_0$65                 sys
C:   000008BF  A$sys\Debug\Library\StdDriver\sr   sys
C:   000008C1  A$sys\Debug\Library\StdDriver\sr   sys
C:   000008C3  A$sys\Debug\Library\StdDriver\sr   sys
C:   000008C5  A$sys\Debug\Library\StdDriver\sr   sys
C:   000008C8  A$sys\Debug\Library\StdDriver\sr   sys
C:   000008CB  A$sys\Debug\Library\StdDriver\sr   sys
C:   000008CE  A$sys\Debug\Library\StdDriver\sr   sys
C:   000008D0  A$sys\Debug\Library\StdDriver\sr   sys
C:   000008D2  A$sys\Debug\Library\StdDriver\sr   sys
C:   000008D2  C$sys.c$241$1_0$63                 sys
C:   000008D4  A$sys\Debug\Library\StdDriver\sr   sys
C:   000008D6  A$sys\Debug\Library\StdDriver\sr   sys
C:   000008D6  C$sys.c$242$1_0$63                 sys
C:   000008D6  XG$ClockSwitch$0$0                 sys
C:   000008D7  A$uartDebug\Library\StdDriver\sr   uart
C:   000008D7  C$uart.c$20$0_0$53                 uart
C:   000008D7  G$Serial_ISR$0$0                   uart
C:   000008D7  _Serial_ISR                        uart
C:   000008D9  A$uartDebug\Library\StdDriver\sr   uart
C:   000008D9  C$uart.c$22$1_0$53                 uart
C:   000008DB  A$uartDebug\Library\StdDriver\sr   uart
C:   000008DB  C$uart.c$23$1_0$53                 uart
ASxxxx Linker V03.00 + NoICE + sdld,  page 55.
Hexadecimal  [32-Bits]

Area                                    Addr        Size        Decimal Bytes (Attributes)
--------------------------------        ----        ----        ------- ----- ------------
CSEG                                00000066    0000151F =        5407. bytes (REL,CON,CODE)

      Value  Global                              Global Defined In Module
      -----  --------------------------------   ------------------------
C:   000008DE  A$uartDebug\Library\StdDriver\sr   uart
C:   000008DE  C$uart.c$25$2_0$54                 uart
C:   000008E0  A$uartDebug\Library\StdDriver\sr   uart
C:   000008E0  C$uart.c$26$2_0$54                 uart
C:   000008E3  A$uartDebug\Library\StdDriver\sr   uart
C:   000008E3  C$uart.c$27$2_0$54                 uart
C:   000008E6  A$uartDebug\Library\StdDriver\sr   uart
C:   000008E6  C$uart.c$30$1_0$53                 uart
C:   000008E8  A$uartDebug\Library\StdDriver\sr   uart
C:   000008E8  C$uart.c$37$1_0$53                 uart
C:   000008EA  A$uartDebug\Library\StdDriver\sr   uart
C:   000008EC  A$uartDebug\Library\StdDriver\sr   uart
C:   000008EC  C$uart.c$38$1_0$53                 uart
C:   000008EC  XG$Serial_ISR$0$0                  uart
C:   000008ED  A$uartDebug\Library\StdDriver\sr   uart
C:   000008ED  C$uart.c$42$1_0$57                 uart
C:   000008ED  C$uart.c$44$1_0$57                 uart
C:   000008ED  G$SerialPort1_ISR$0$0              uart
C:   000008ED  _SerialPort1_ISR                   uart
C:   000008EF  A$uartDebug\Library\StdDriver\sr   uart
C:   000008EF  C$uart.c$46$1_0$57                 uart
C:   000008F2  A$uartDebug\Library\StdDriver\sr   uart
C:   000008F2  C$uart.c$48$2_0$58                 uart
C:   000008F5  A$uartDebug\Library\StdDriver\sr   uart
C:   000008F5  C$uart.c$49$2_0$58                 uart
C:   000008F8  A$uartDebug\Library\StdDriver\sr   uart
C:   000008F8  C$uart.c$50$2_0$58                 uart
C:   000008FA  A$uartDebug\Library\StdDriver\sr   uart
C:   000008FA  C$uart.c$53$1_0$57                 uart
C:   000008FD  A$uartDebug\Library\StdDriver\sr   uart
C:   000008FD  C$uart.c$55$2_0$59                 uart
C:   00000900  A$uartDebug\Library\StdDriver\sr   uart
C:   00000900  C$uart.c$57$3_0$60                 uart
C:   00000903  A$uartDebug\Library\StdDriver\sr   uart
C:   00000903  C$uart.c$60$1_0$57                 uart
C:   00000905  A$uartDebug\Library\StdDriver\sr   uart
C:   00000905  C$uart.c$61$1_0$57                 uart
C:   00000905  XG$SerialPort1_ISR$0$0             uart
C:   00000906  A$uartDebug\Library\StdDriver\sr   uart
C:   00000906  C$uart.c$64$1_0$62                 uart
C:   00000906  G$UART_Open$0$0                    uart
C:   00000906  _UART_Open                         uart
C:   00000908  A$uartDebug\Library\StdDriver\sr   uart
C:   0000090A  A$uartDebug\Library\StdDriver\sr   uart
C:   0000090C  A$uartDebug\Library\StdDriver\sr   uart
C:   0000090D  A$uartDebug\Library\StdDriver\sr   uart
C:   0000090D  C$uart.c$66$1_0$62                 uart
C:   0000090D  C$uart.c$67$1_0$62                 uart
C:   0000090E  A$uartDebug\Library\StdDriver\sr   uart
C:   00000910  A$uartDebug\Library\StdDriver\sr   uart
C:   00000913  A$uartDebug\Library\StdDriver\sr   uart
ASxxxx Linker V03.00 + NoICE + sdld,  page 56.
Hexadecimal  [32-Bits]

Area                                    Addr        Size        Decimal Bytes (Attributes)
--------------------------------        ----        ----        ------- ----- ------------
CSEG                                00000066    0000151F =        5407. bytes (REL,CON,CODE)

      Value  Global                              Global Defined In Module
      -----  --------------------------------   ------------------------
C:   00000915  A$uartDebug\Library\StdDriver\sr   uart
C:   00000917  A$uartDebug\Library\StdDriver\sr   uart
C:   0000091A  A$uartDebug\Library\StdDriver\sr   uart
C:   0000091C  A$uartDebug\Library\StdDriver\sr   uart
C:   0000091E  A$uartDebug\Library\StdDriver\sr   uart
C:   00000921  A$uartDebug\Library\StdDriver\sr   uart
C:   00000924  A$uartDebug\Library\StdDriver\sr   uart
C:   00000927  A$uartDebug\Library\StdDriver\sr   uart
C:   00000927  C$uart.c$69$2_0$63                 uart
C:   00000927  C$uart.c$70$2_0$63                 uart
C:   0000092A  A$uartDebug\Library\StdDriver\sr   uart
C:   0000092A  C$uart.c$71$2_0$63                 uart
C:   0000092D  A$uartDebug\Library\StdDriver\sr   uart
C:   0000092D  C$uart.c$72$2_0$63                 uart
C:   00000930  A$uartDebug\Library\StdDriver\sr   uart
C:   00000930  C$uart.c$73$2_0$63                 uart
C:   00000933  A$uartDebug\Library\StdDriver\sr   uart
C:   00000936  A$uartDebug\Library\StdDriver\sr   uart
C:   00000936  C$uart.c$74$2_0$63                 uart
C:   00000939  A$uartDebug\Library\StdDriver\sr   uart
C:   0000093C  A$uartDebug\Library\StdDriver\sr   uart
C:   0000093C  C$uart.c$75$2_0$63                 uart
C:   0000093E  A$uartDebug\Library\StdDriver\sr   uart
C:   0000093F  A$uartDebug\Library\StdDriver\sr   uart
C:   00000940  A$uartDebug\Library\StdDriver\sr   uart
C:   00000941  A$uartDebug\Library\StdDriver\sr   uart
C:   00000942  A$uartDebug\Library\StdDriver\sr   uart
C:   00000944  A$uartDebug\Library\StdDriver\sr   uart
C:   00000945  A$uartDebug\Library\StdDriver\sr   uart
C:   00000946  A$uartDebug\Library\StdDriver\sr   uart
C:   00000948  A$uartDebug\Library\StdDriver\sr   uart
C:   00000949  A$uartDebug\Library\StdDriver\sr   uart
C:   0000094A  A$uartDebug\Library\StdDriver\sr   uart
C:   0000094B  A$uartDebug\Library\StdDriver\sr   uart
C:   0000094C  A$uartDebug\Library\StdDriver\sr   uart
C:   0000094D  A$uartDebug\Library\StdDriver\sr   uart
C:   0000094E  A$uartDebug\Library\StdDriver\sr   uart
C:   00000950  A$uartDebug\Library\StdDriver\sr   uart
C:   00000951  A$uartDebug\Library\StdDriver\sr   uart
C:   00000952  A$uartDebug\Library\StdDriver\sr   uart
C:   00000954  A$uartDebug\Library\StdDriver\sr   uart
C:   00000955  A$uartDebug\Library\StdDriver\sr   uart
C:   00000956  A$uartDebug\Library\StdDriver\sr   uart
C:   00000957  A$uartDebug\Library\StdDriver\sr   uart
C:   00000958  A$uartDebug\Library\StdDriver\sr   uart
C:   0000095A  A$uartDebug\Library\StdDriver\sr   uart
C:   0000095B  A$uartDebug\Library\StdDriver\sr   uart
C:   0000095C  A$uartDebug\Library\StdDriver\sr   uart
C:   0000095E  A$uartDebug\Library\StdDriver\sr   uart
C:   0000095F  A$uartDebug\Library\StdDriver\sr   uart
C:   00000960  A$uartDebug\Library\StdDriver\sr   uart
ASxxxx Linker V03.00 + NoICE + sdld,  page 57.
Hexadecimal  [32-Bits]

Area                                    Addr        Size        Decimal Bytes (Attributes)
--------------------------------        ----        ----        ------- ----- ------------
CSEG                                00000066    0000151F =        5407. bytes (REL,CON,CODE)

      Value  Global                              Global Defined In Module
      -----  --------------------------------   ------------------------
C:   00000961  A$uartDebug\Library\StdDriver\sr   uart
C:   00000962  A$uartDebug\Library\StdDriver\sr   uart
C:   00000965  A$uartDebug\Library\StdDriver\sr   uart
C:   00000968  A$uartDebug\Library\StdDriver\sr   uart
C:   0000096B  A$uartDebug\Library\StdDriver\sr   uart
C:   0000096E  A$uartDebug\Library\StdDriver\sr   uart
C:   00000970  A$uartDebug\Library\StdDriver\sr   uart
C:   00000972  A$uartDebug\Library\StdDriver\sr   uart
C:   00000974  A$uartDebug\Library\StdDriver\sr   uart
C:   00000975  A$uartDebug\Library\StdDriver\sr   uart
C:   00000978  A$uartDebug\Library\StdDriver\sr   uart
C:   0000097A  A$uartDebug\Library\StdDriver\sr   uart
C:   0000097C  A$uartDebug\Library\StdDriver\sr   uart
C:   0000097E  A$uartDebug\Library\StdDriver\sr   uart
C:   0000097F  A$uartDebug\Library\StdDriver\sr   uart
C:   00000980  A$uartDebug\Library\StdDriver\sr   uart
C:   00000981  A$uartDebug\Library\StdDriver\sr   uart
C:   00000982  A$uartDebug\Library\StdDriver\sr   uart
C:   00000984  A$uartDebug\Library\StdDriver\sr   uart
C:   00000984  C$uart.c$76$2_0$63                 uart
C:   00000987  A$uartDebug\Library\StdDriver\sr   uart
C:   00000987  C$uart.c$77$2_0$63                 uart
C:   0000098A  A$uartDebug\Library\StdDriver\sr   uart
C:   0000098A  C$uart.c$78$2_0$63                 uart
C:   0000098D  A$uartDebug\Library\StdDriver\sr   uart
C:   0000098D  C$uart.c$80$2_0$63                 uart
C:   0000098D  C$uart.c$81$2_0$63                 uart
C:   00000990  A$uartDebug\Library\StdDriver\sr   uart
C:   00000990  C$uart.c$82$2_0$63                 uart
C:   00000993  A$uartDebug\Library\StdDriver\sr   uart
C:   00000993  C$uart.c$83$2_0$63                 uart
C:   00000996  A$uartDebug\Library\StdDriver\sr   uart
C:   00000996  C$uart.c$84$2_0$63                 uart
C:   00000999  A$uartDebug\Library\StdDriver\sr   uart
C:   0000099C  A$uartDebug\Library\StdDriver\sr   uart
C:   0000099C  C$uart.c$85$2_0$63                 uart
C:   0000099E  A$uartDebug\Library\StdDriver\sr   uart
C:   0000099F  A$uartDebug\Library\StdDriver\sr   uart
C:   000009A0  A$uartDebug\Library\StdDriver\sr   uart
C:   000009A1  A$uartDebug\Library\StdDriver\sr   uart
C:   000009A2  A$uartDebug\Library\StdDriver\sr   uart
C:   000009A4  A$uartDebug\Library\StdDriver\sr   uart
C:   000009A5  A$uartDebug\Library\StdDriver\sr   uart
C:   000009A6  A$uartDebug\Library\StdDriver\sr   uart
C:   000009A8  A$uartDebug\Library\StdDriver\sr   uart
C:   000009A9  A$uartDebug\Library\StdDriver\sr   uart
C:   000009AA  A$uartDebug\Library\StdDriver\sr   uart
C:   000009AB  A$uartDebug\Library\StdDriver\sr   uart
C:   000009AC  A$uartDebug\Library\StdDriver\sr   uart
C:   000009AD  A$uartDebug\Library\StdDriver\sr   uart
C:   000009AE  A$uartDebug\Library\StdDriver\sr   uart
ASxxxx Linker V03.00 + NoICE + sdld,  page 58.
Hexadecimal  [32-Bits]

Area                                    Addr        Size        Decimal Bytes (Attributes)
--------------------------------        ----        ----        ------- ----- ------------
CSEG                                00000066    0000151F =        5407. bytes (REL,CON,CODE)

      Value  Global                              Global Defined In Module
      -----  --------------------------------   ------------------------
C:   000009B0  A$uartDebug\Library\StdDriver\sr   uart
C:   000009B1  A$uartDebug\Library\StdDriver\sr   uart
C:   000009B2  A$uartDebug\Library\StdDriver\sr   uart
C:   000009B4  A$uartDebug\Library\StdDriver\sr   uart
C:   000009B5  A$uartDebug\Library\StdDriver\sr   uart
C:   000009B6  A$uartDebug\Library\StdDriver\sr   uart
C:   000009B7  A$uartDebug\Library\StdDriver\sr   uart
C:   000009B8  A$uartDebug\Library\StdDriver\sr   uart
C:   000009BA  A$uartDebug\Library\StdDriver\sr   uart
C:   000009BB  A$uartDebug\Library\StdDriver\sr   uart
C:   000009BC  A$uartDebug\Library\StdDriver\sr   uart
C:   000009BE  A$uartDebug\Library\StdDriver\sr   uart
C:   000009BF  A$uartDebug\Library\StdDriver\sr   uart
C:   000009C0  A$uartDebug\Library\StdDriver\sr   uart
C:   000009C1  A$uartDebug\Library\StdDriver\sr   uart
C:   000009C2  A$uartDebug\Library\StdDriver\sr   uart
C:   000009C5  A$uartDebug\Library\StdDriver\sr   uart
C:   000009C8  A$uartDebug\Library\StdDriver\sr   uart
C:   000009CB  A$uartDebug\Library\StdDriver\sr   uart
C:   000009CE  A$uartDebug\Library\StdDriver\sr   uart
C:   000009D0  A$uartDebug\Library\StdDriver\sr   uart
C:   000009D2  A$uartDebug\Library\StdDriver\sr   uart
C:   000009D4  A$uartDebug\Library\StdDriver\sr   uart
C:   000009D5  A$uartDebug\Library\StdDriver\sr   uart
C:   000009D8  A$uartDebug\Library\StdDriver\sr   uart
C:   000009DB  A$uartDebug\Library\StdDriver\sr   uart
C:   000009DE  A$uartDebug\Library\StdDriver\sr   uart
C:   000009E1  A$uartDebug\Library\StdDriver\sr   uart
C:   000009E3  A$uartDebug\Library\StdDriver\sr   uart
C:   000009E4  A$uartDebug\Library\StdDriver\sr   uart
C:   000009E5  A$uartDebug\Library\StdDriver\sr   uart
C:   000009E7  A$uartDebug\Library\StdDriver\sr   uart
C:   000009E8  A$uartDebug\Library\StdDriver\sr   uart
C:   000009EA  A$uartDebug\Library\StdDriver\sr   uart
C:   000009EB  A$uartDebug\Library\StdDriver\sr   uart
C:   000009ED  A$uartDebug\Library\StdDriver\sr   uart
C:   000009EF  A$uartDebug\Library\StdDriver\sr   uart
C:   000009F0  A$uartDebug\Library\StdDriver\sr   uart
C:   000009F1  A$uartDebug\Library\StdDriver\sr   uart
C:   000009F3  A$uartDebug\Library\StdDriver\sr   uart
C:   000009F4  A$uartDebug\Library\StdDriver\sr   uart
C:   000009F6  A$uartDebug\Library\StdDriver\sr   uart
C:   000009F6  C$uart.c$86$2_0$63                 uart
C:   000009F8  A$uartDebug\Library\StdDriver\sr   uart
C:   000009F9  A$uartDebug\Library\StdDriver\sr   uart
C:   000009FA  A$uartDebug\Library\StdDriver\sr   uart
C:   000009FB  A$uartDebug\Library\StdDriver\sr   uart
C:   000009FC  A$uartDebug\Library\StdDriver\sr   uart
C:   000009FE  A$uartDebug\Library\StdDriver\sr   uart
C:   000009FE  C$uart.c$87$2_0$63                 uart
C:   00000A01  A$uartDebug\Library\StdDriver\sr   uart
ASxxxx Linker V03.00 + NoICE + sdld,  page 59.
Hexadecimal  [32-Bits]

Area                                    Addr        Size        Decimal Bytes (Attributes)
--------------------------------        ----        ----        ------- ----- ------------
CSEG                                00000066    0000151F =        5407. bytes (REL,CON,CODE)

      Value  Global                              Global Defined In Module
      -----  --------------------------------   ------------------------
C:   00000A04  A$uartDebug\Library\StdDriver\sr   uart
C:   00000A04  C$uart.c$88$2_0$63                 uart
C:   00000A07  A$uartDebug\Library\StdDriver\sr   uart
C:   00000A07  C$uart.c$89$2_0$63                 uart
C:   00000A07  C$uart.c$91$2_0$63                 uart
C:   00000A09  A$uartDebug\Library\StdDriver\sr   uart
C:   00000A09  C$uart.c$92$2_0$63                 uart
C:   00000A0C  A$uartDebug\Library\StdDriver\sr   uart
C:   00000A0C  C$uart.c$93$2_0$63                 uart
C:   00000A0F  A$uartDebug\Library\StdDriver\sr   uart
C:   00000A0F  C$uart.c$94$2_0$63                 uart
C:   00000A10  A$uartDebug\Library\StdDriver\sr   uart
C:   00000A11  A$uartDebug\Library\StdDriver\sr   uart
C:   00000A12  A$uartDebug\Library\StdDriver\sr   uart
C:   00000A13  A$uartDebug\Library\StdDriver\sr   uart
C:   00000A15  A$uartDebug\Library\StdDriver\sr   uart
C:   00000A16  A$uartDebug\Library\StdDriver\sr   uart
C:   00000A17  A$uartDebug\Library\StdDriver\sr   uart
C:   00000A19  A$uartDebug\Library\StdDriver\sr   uart
C:   00000A1A  A$uartDebug\Library\StdDriver\sr   uart
C:   00000A1B  A$uartDebug\Library\StdDriver\sr   uart
C:   00000A1C  A$uartDebug\Library\StdDriver\sr   uart
C:   00000A1D  A$uartDebug\Library\StdDriver\sr   uart
C:   00000A1E  A$uartDebug\Library\StdDriver\sr   uart
C:   00000A1F  A$uartDebug\Library\StdDriver\sr   uart
C:   00000A21  A$uartDebug\Library\StdDriver\sr   uart
C:   00000A22  A$uartDebug\Library\StdDriver\sr   uart
C:   00000A23  A$uartDebug\Library\StdDriver\sr   uart
C:   00000A24  A$uartDebug\Library\StdDriver\sr   uart
C:   00000A25  A$uartDebug\Library\StdDriver\sr   uart
C:   00000A26  A$uartDebug\Library\StdDriver\sr   uart
C:   00000A27  A$uartDebug\Library\StdDriver\sr   uart
C:   00000A29  A$uartDebug\Library\StdDriver\sr   uart
C:   00000A2A  A$uartDebug\Library\StdDriver\sr   uart
C:   00000A2B  A$uartDebug\Library\StdDriver\sr   uart
C:   00000A2D  A$uartDebug\Library\StdDriver\sr   uart
C:   00000A2E  A$uartDebug\Library\StdDriver\sr   uart
C:   00000A2F  A$uartDebug\Library\StdDriver\sr   uart
C:   00000A30  A$uartDebug\Library\StdDriver\sr   uart
C:   00000A31  A$uartDebug\Library\StdDriver\sr   uart
C:   00000A34  A$uartDebug\Library\StdDriver\sr   uart
C:   00000A37  A$uartDebug\Library\StdDriver\sr   uart
C:   00000A3A  A$uartDebug\Library\StdDriver\sr   uart
C:   00000A3D  A$uartDebug\Library\StdDriver\sr   uart
C:   00000A3F  A$uartDebug\Library\StdDriver\sr   uart
C:   00000A41  A$uartDebug\Library\StdDriver\sr   uart
C:   00000A43  A$uartDebug\Library\StdDriver\sr   uart
C:   00000A44  A$uartDebug\Library\StdDriver\sr   uart
C:   00000A47  A$uartDebug\Library\StdDriver\sr   uart
C:   00000A49  A$uartDebug\Library\StdDriver\sr   uart
C:   00000A4B  A$uartDebug\Library\StdDriver\sr   uart
ASxxxx Linker V03.00 + NoICE + sdld,  page 60.
Hexadecimal  [32-Bits]

Area                                    Addr        Size        Decimal Bytes (Attributes)
--------------------------------        ----        ----        ------- ----- ------------
CSEG                                00000066    0000151F =        5407. bytes (REL,CON,CODE)

      Value  Global                              Global Defined In Module
      -----  --------------------------------   ------------------------
C:   00000A4D  A$uartDebug\Library\StdDriver\sr   uart
C:   00000A4E  A$uartDebug\Library\StdDriver\sr   uart
C:   00000A4F  A$uartDebug\Library\StdDriver\sr   uart
C:   00000A50  A$uartDebug\Library\StdDriver\sr   uart
C:   00000A51  A$uartDebug\Library\StdDriver\sr   uart
C:   00000A52  A$uartDebug\Library\StdDriver\sr   uart
C:   00000A53  A$uartDebug\Library\StdDriver\sr   uart
C:   00000A54  A$uartDebug\Library\StdDriver\sr   uart
C:   00000A55  A$uartDebug\Library\StdDriver\sr   uart
C:   00000A57  A$uartDebug\Library\StdDriver\sr   uart
C:   00000A58  A$uartDebug\Library\StdDriver\sr   uart
C:   00000A59  A$uartDebug\Library\StdDriver\sr   uart
C:   00000A5A  A$uartDebug\Library\StdDriver\sr   uart
C:   00000A5B  A$uartDebug\Library\StdDriver\sr   uart
C:   00000A5C  A$uartDebug\Library\StdDriver\sr   uart
C:   00000A5E  A$uartDebug\Library\StdDriver\sr   uart
C:   00000A5E  C$uart.c$95$2_0$63                 uart
C:   00000A5F  A$uartDebug\Library\StdDriver\sr   uart
C:   00000A60  A$uartDebug\Library\StdDriver\sr   uart
C:   00000A61  A$uartDebug\Library\StdDriver\sr   uart
C:   00000A62  A$uartDebug\Library\StdDriver\sr   uart
C:   00000A64  A$uartDebug\Library\StdDriver\sr   uart
C:   00000A64  C$uart.c$96$2_0$63                 uart
C:   00000A67  A$uartDebug\Library\StdDriver\sr   uart
C:   00000A6A  A$uartDebug\Library\StdDriver\sr   uart
C:   00000A6A  C$uart.c$97$2_0$63                 uart
C:   00000A6D  A$uartDebug\Library\StdDriver\sr   uart
C:   00000A70  A$uartDebug\Library\StdDriver\sr   uart
C:   00000A70  C$uart.c$100$1_0$62                uart
C:   00000A70  C$uart.c$99$1_0$62                 uart
C:   00000A70  XG$UART_Open$0$0                   uart
C:   00000A71  A$uartDebug\Library\StdDriver\sr   uart
C:   00000A71  C$uart.c$102$1_0$65                uart
C:   00000A71  G$Receive_Data$0$0                 uart
C:   00000A71  _Receive_Data                      uart
C:   00000A73  A$uartDebug\Library\StdDriver\sr   uart
C:   00000A73  C$uart.c$104$2_0$65                uart
C:   00000A75  A$uartDebug\Library\StdDriver\sr   uart
C:   00000A75  C$uart.c$105$1_0$65                uart
C:   00000A77  A$uartDebug\Library\StdDriver\sr   uart
C:   00000A77  C$uart.c$106$1_0$65                uart
C:   00000A7A  A$uartDebug\Library\StdDriver\sr   uart
C:   00000A7C  A$uartDebug\Library\StdDriver\sr   uart
C:   00000A7C  C$uart.c$109$2_0$66                uart
C:   00000A7F  A$uartDebug\Library\StdDriver\sr   uart
C:   00000A81  A$uartDebug\Library\StdDriver\sr   uart
C:   00000A84  A$uartDebug\Library\StdDriver\sr   uart
C:   00000A84  C$uart.c$110$2_0$66                uart
C:   00000A86  A$uartDebug\Library\StdDriver\sr   uart
C:   00000A86  C$uart.c$111$2_0$66                uart
C:   00000A88  A$uartDebug\Library\StdDriver\sr   uart
ASxxxx Linker V03.00 + NoICE + sdld,  page 61.
Hexadecimal  [32-Bits]

Area                                    Addr        Size        Decimal Bytes (Attributes)
--------------------------------        ----        ----        ------- ----- ------------
CSEG                                00000066    0000151F =        5407. bytes (REL,CON,CODE)

      Value  Global                              Global Defined In Module
      -----  --------------------------------   ------------------------
C:   00000A88  C$uart.c$112$2_0$66                uart
C:   00000A88  C$uart.c$115$2_0$66                uart
C:   00000A8A  A$uartDebug\Library\StdDriver\sr   uart
C:   00000A8D  A$uartDebug\Library\StdDriver\sr   uart
C:   00000A8D  C$uart.c$116$2_0$66                uart
C:   00000A8F  A$uartDebug\Library\StdDriver\sr   uart
C:   00000A8F  C$uart.c$117$2_0$66                uart
C:   00000A91  A$uartDebug\Library\StdDriver\sr   uart
C:   00000A91  C$uart.c$119$1_0$65                uart
C:   00000A91  C$uart.c$121$1_0$65                uart
C:   00000A93  A$uartDebug\Library\StdDriver\sr   uart
C:   00000A93  C$uart.c$122$1_0$65                uart
C:   00000A93  XG$Receive_Data$0$0                uart
C:   00000A94  A$uartDebug\Library\StdDriver\sr   uart
C:   00000A94  C$uart.c$124$1_0$68                uart
C:   00000A94  G$UART_Send_Data$0$0               uart
C:   00000A94  _UART_Send_Data                    uart
C:   00000A96  A$uartDebug\Library\StdDriver\sr   uart
C:   00000A96  C$uart.c$126$1_0$68                uart
C:   00000A98  A$uartDebug\Library\StdDriver\sr   uart
C:   00000A98  C$uart.c$127$1_0$68                uart
C:   00000A9B  A$uartDebug\Library\StdDriver\sr   uart
C:   00000A9B  C$uart.c$128$1_0$68                uart
C:   00000A9E  A$uartDebug\Library\StdDriver\sr   uart
C:   00000AA0  A$uartDebug\Library\StdDriver\sr   uart
C:   00000AA0  C$uart.c$130$2_0$69                uart
C:   00000AA3  A$uartDebug\Library\StdDriver\sr   uart
C:   00000AA5  A$uartDebug\Library\StdDriver\sr   uart
C:   00000AA5  C$uart.c$131$2_0$69                uart
C:   00000AA7  A$uartDebug\Library\StdDriver\sr   uart
C:   00000AA7  C$uart.c$132$2_0$69                uart
C:   00000AAA  A$uartDebug\Library\StdDriver\sr   uart
C:   00000AAA  C$uart.c$133$2_0$69                uart
C:   00000AAD  A$uartDebug\Library\StdDriver\sr   uart
C:   00000AAD  C$uart.c$135$2_0$69                uart
C:   00000AAF  A$uartDebug\Library\StdDriver\sr   uart
C:   00000AAF  C$uart.c$136$2_0$69                uart
C:   00000AB1  A$uartDebug\Library\StdDriver\sr   uart
C:   00000AB1  C$uart.c$137$2_0$69                uart
C:   00000AB4  A$uartDebug\Library\StdDriver\sr   uart
C:   00000AB4  C$uart.c$138$2_0$69                uart
C:   00000AB7  A$uartDebug\Library\StdDriver\sr   uart
C:   00000AB7  C$uart.c$140$1_0$68                uart
C:   00000AB7  C$uart.c$141$1_0$68                uart
C:   00000AB9  A$uartDebug\Library\StdDriver\sr   uart
C:   00000AB9  C$uart.c$142$1_0$68                uart
C:   00000AB9  XG$UART_Send_Data$0$0              uart
C:   00000ABA  A$ADC_simpleSampleCode\RegBased\   ADC_simple
C:   00000ABA  C$ADC_simple.C$26$0_0$60           ADC_simple
C:   00000ABA  G$putchar$0$0                      ADC_simple
C:   00000ABA  _putchar                           ADC_simple
ASxxxx Linker V03.00 + NoICE + sdld,  page 62.
Hexadecimal  [32-Bits]

Area                                    Addr        Size        Decimal Bytes (Attributes)
--------------------------------        ----        ----        ------- ----- ------------
CSEG                                00000066    0000151F =        5407. bytes (REL,CON,CODE)

      Value  Global                              Global Defined In Module
      -----  --------------------------------   ------------------------
C:   00000ABC  A$ADC_simpleSampleCode\RegBased\   ADC_simple
C:   00000ABC  C$ADC_simple.C$27$1_0$60           ADC_simple
C:   00000ABC  C$ADC_simple.C$28$1_0$60           ADC_simple
C:   00000ABF  A$ADC_simpleSampleCode\RegBased\   ADC_simple
C:   00000AC1  A$ADC_simpleSampleCode\RegBased\   ADC_simple
C:   00000AC1  C$ADC_simple.C$29$1_0$60           ADC_simple
C:   00000AC3  A$ADC_simpleSampleCode\RegBased\   ADC_simple
C:   00000AC5  A$ADC_simpleSampleCode\RegBased\   ADC_simple
C:   00000AC7  A$ADC_simpleSampleCode\RegBased\   ADC_simple
C:   00000AC9  A$ADC_simpleSampleCode\RegBased\   ADC_simple
C:   00000AC9  C$ADC_simple.C$30$1_0$60           ADC_simple
C:   00000AC9  XG$putchar$0$0                     ADC_simple
C:   00000ACA  A$ADC_simpleSampleCode\RegBased\   ADC_simple
C:   00000ACA  C$ADC_simple.C$32$1_0$62           ADC_simple
C:   00000ACA  C$ADC_simple.C$41$1_0$62           ADC_simple
C:   00000ACA  G$main$0$0                         ADC_simple
C:   00000ACA  _main                              ADC_simple
C:   00000ACD  A$ADC_simpleSampleCode\RegBased\   ADC_simple
C:   00000AD0  A$ADC_simpleSampleCode\RegBased\   ADC_simple
C:   00000AD0  C$ADC_simple.C$42$1_0$62           ADC_simple
C:   00000AD3  A$ADC_simpleSampleCode\RegBased\   ADC_simple
C:   00000AD6  A$ADC_simpleSampleCode\RegBased\   ADC_simple
C:   00000AD9  A$ADC_simpleSampleCode\RegBased\   ADC_simple
C:   00000AD9  C$ADC_simple.C$43$1_0$62           ADC_simple
C:   00000ADC  A$ADC_simpleSampleCode\RegBased\   ADC_simple
C:   00000ADF  A$ADC_simpleSampleCode\RegBased\   ADC_simple
C:   00000AE2  A$ADC_simpleSampleCode\RegBased\   ADC_simple
C:   00000AE2  C$ADC_simple.C$44$1_0$62           ADC_simple
C:   00000AE5  A$ADC_simpleSampleCode\RegBased\   ADC_simple
C:   00000AE6  A$ADC_simpleSampleCode\RegBased\   ADC_simple
C:   00000AE8  A$ADC_simpleSampleCode\RegBased\   ADC_simple
C:   00000AEB  A$ADC_simpleSampleCode\RegBased\   ADC_simple
C:   00000AEE  A$ADC_simpleSampleCode\RegBased\   ADC_simple
C:   00000AF0  A$ADC_simpleSampleCode\RegBased\   ADC_simple
C:   00000AF3  A$ADC_simpleSampleCode\RegBased\   ADC_simple
C:   00000AF6  A$ADC_simpleSampleCode\RegBased\   ADC_simple
C:   00000AF8  A$ADC_simpleSampleCode\RegBased\   ADC_simple
C:   00000AFB  A$ADC_simpleSampleCode\RegBased\   ADC_simple
C:   00000AFB  C$ADC_simple.C$45$1_0$62           ADC_simple
C:   00000AFE  A$ADC_simpleSampleCode\RegBased\   ADC_simple
C:   00000B00  A$ADC_simpleSampleCode\RegBased\   ADC_simple
C:   00000B00  C$ADC_simple.C$47$1_0$62           ADC_simple
C:   00000B03  A$ADC_simpleSampleCode\RegBased\   ADC_simple
C:   00000B06  A$ADC_simpleSampleCode\RegBased\   ADC_simple
C:   00000B09  A$ADC_simpleSampleCode\RegBased\   ADC_simple
C:   00000B0C  A$ADC_simpleSampleCode\RegBased\   ADC_simple
C:   00000B0F  A$ADC_simpleSampleCode\RegBased\   ADC_simple
C:   00000B12  A$ADC_simpleSampleCode\RegBased\   ADC_simple
C:   00000B15  A$ADC_simpleSampleCode\RegBased\   ADC_simple
C:   00000B18  A$ADC_simpleSampleCode\RegBased\   ADC_simple
C:   00000B1B  A$ADC_simpleSampleCode\RegBased\   ADC_simple
ASxxxx Linker V03.00 + NoICE + sdld,  page 63.
Hexadecimal  [32-Bits]

Area                                    Addr        Size        Decimal Bytes (Attributes)
--------------------------------        ----        ----        ------- ----- ------------
CSEG                                00000066    0000151F =        5407. bytes (REL,CON,CODE)

      Value  Global                              Global Defined In Module
      -----  --------------------------------   ------------------------
C:   00000B1E  A$ADC_simpleSampleCode\RegBased\   ADC_simple
C:   00000B21  A$ADC_simpleSampleCode\RegBased\   ADC_simple
C:   00000B21  C$ADC_simple.C$49$1_0$62           ADC_simple
C:   00000B21  C$ADC_simple.C$51$2_0$63           ADC_simple
C:   00000B24  A$ADC_simpleSampleCode\RegBased\   ADC_simple
C:   00000B27  A$ADC_simpleSampleCode\RegBased\   ADC_simple
C:   00000B2A  A$ADC_simpleSampleCode\RegBased\   ADC_simple
C:   00000B2D  A$ADC_simpleSampleCode\RegBased\   ADC_simple
C:   00000B30  A$ADC_simpleSampleCode\RegBased\   ADC_simple
C:   00000B33  A$ADC_simpleSampleCode\RegBased\   ADC_simple
C:   00000B34  A$ADC_simpleSampleCode\RegBased\   ADC_simple
C:   00000B36  A$ADC_simpleSampleCode\RegBased\   ADC_simple
C:   00000B38  A$ADC_simpleSampleCode\RegBased\   ADC_simple
C:   00000B3B  A$ADC_simpleSampleCode\RegBased\   ADC_simple
C:   00000B3E  A$ADC_simpleSampleCode\RegBased\   ADC_simple
C:   00000B40  A$ADC_simpleSampleCode\RegBased\   ADC_simple
C:   00000B43  A$ADC_simpleSampleCode\RegBased\   ADC_simple
C:   00000B43  C$ADC_simple.C$52$2_0$63           ADC_simple
C:   00000B46  A$ADC_simpleSampleCode\RegBased\   ADC_simple
C:   00000B46  C$ADC_simple.C$53$2_0$63           ADC_simple
C:   00000B49  A$ADC_simpleSampleCode\RegBased\   ADC_simple
C:   00000B49  C$ADC_simple.C$54$2_0$63           ADC_simple
C:   00000B4C  A$ADC_simpleSampleCode\RegBased\   ADC_simple
C:   00000B4C  C$ADC_simple.C$55$2_0$63           ADC_simple
C:   00000B4E  A$ADC_simpleSampleCode\RegBased\   ADC_simple
C:   00000B4F  A$ADC_simpleSampleCode\RegBased\   ADC_simple
C:   00000B50  A$ADC_simpleSampleCode\RegBased\   ADC_simple
C:   00000B52  A$ADC_simpleSampleCode\RegBased\   ADC_simple
C:   00000B53  A$ADC_simpleSampleCode\RegBased\   ADC_simple
C:   00000B54  A$ADC_simpleSampleCode\RegBased\   ADC_simple
C:   00000B55  A$ADC_simpleSampleCode\RegBased\   ADC_simple
C:   00000B56  A$ADC_simpleSampleCode\RegBased\   ADC_simple
C:   00000B57  A$ADC_simpleSampleCode\RegBased\   ADC_simple
C:   00000B59  A$ADC_simpleSampleCode\RegBased\   ADC_simple
C:   00000B5A  A$ADC_simpleSampleCode\RegBased\   ADC_simple
C:   00000B5B  A$ADC_simpleSampleCode\RegBased\   ADC_simple
C:   00000B5C  A$ADC_simpleSampleCode\RegBased\   ADC_simple
C:   00000B5E  A$ADC_simpleSampleCode\RegBased\   ADC_simple
C:   00000B61  A$ADC_simpleSampleCode\RegBased\   ADC_simple
C:   00000B63  A$ADC_simpleSampleCode\RegBased\   ADC_simple
C:   00000B64  A$ADC_simpleSampleCode\RegBased\   ADC_simple
C:   00000B65  A$ADC_simpleSampleCode\RegBased\   ADC_simple
C:   00000B66  A$ADC_simpleSampleCode\RegBased\   ADC_simple
C:   00000B67  A$ADC_simpleSampleCode\RegBased\   ADC_simple
C:   00000B68  A$ADC_simpleSampleCode\RegBased\   ADC_simple
C:   00000B69  A$ADC_simpleSampleCode\RegBased\   ADC_simple
C:   00000B69  C$ADC_simple.C$56$2_0$63           ADC_simple
C:   00000B6B  A$ADC_simpleSampleCode\RegBased\   ADC_simple
C:   00000B6D  A$ADC_simpleSampleCode\RegBased\   ADC_simple
C:   00000B6F  A$ADC_simpleSampleCode\RegBased\   ADC_simple
C:   00000B71  A$ADC_simpleSampleCode\RegBased\   ADC_simple
ASxxxx Linker V03.00 + NoICE + sdld,  page 64.
Hexadecimal  [32-Bits]

Area                                    Addr        Size        Decimal Bytes (Attributes)
--------------------------------        ----        ----        ------- ----- ------------
CSEG                                00000066    0000151F =        5407. bytes (REL,CON,CODE)

      Value  Global                              Global Defined In Module
      -----  --------------------------------   ------------------------
C:   00000B73  A$ADC_simpleSampleCode\RegBased\   ADC_simple
C:   00000B75  A$ADC_simpleSampleCode\RegBased\   ADC_simple
C:   00000B77  A$ADC_simpleSampleCode\RegBased\   ADC_simple
C:   00000B79  A$ADC_simpleSampleCode\RegBased\   ADC_simple
C:   00000B7C  A$ADC_simpleSampleCode\RegBased\   ADC_simple
C:   00000B7E  A$ADC_simpleSampleCode\RegBased\   ADC_simple
C:   00000B80  A$ADC_simpleSampleCode\RegBased\   ADC_simple
C:   00000B82  A$ADC_simpleSampleCode\RegBased\   ADC_simple
C:   00000B82  C$ADC_simple.C$57$2_0$63           ADC_simple
C:   00000B84  A$ADC_simpleSampleCode\RegBased\   ADC_simple
C:   00000B86  A$ADC_simpleSampleCode\RegBased\   ADC_simple
C:   00000B86  C$ADC_simple.C$59$1_0$62           ADC_simple
C:   00000B86  XG$main$0$0                        ADC_simple
C:   00000B87  __divulong                         _divulong
C:   00000BEC  __mullong                          _mullong
C:   00000BEC  __mullong_dummy                    _mullong
C:   00000C69  _vprintf                           vprintf
C:   00000C82  _printf                            vprintf
C:   00000D48  __print_format                     printf_large
C:   00001530  _strlen                            _strlen
C:   00001548  __mulint                           _mulint
C:   00001548  __mulint_dummy                     _mulint
C:   00001565  __gptrget                          _gptrget
C:   00001581  __sdcc_external_startup            _startup

ASxxxx Linker V03.00 + NoICE + sdld,  page 65.
Hexadecimal  [32-Bits]

Area                                    Addr        Size        Decimal Bytes (Attributes)
--------------------------------        ----        ----        ------- ----- ------------
CONST                               00001585    00000020 =          32. bytes (REL,CON,CODE)

      Value  Global                              Global Defined In Module
      -----  --------------------------------   ------------------------
C:   00001585  FADC_simple$__str_0$0_0$0          ADC_simple

ASxxxx Linker V03.00 + NoICE + sdld,  page 66.

Files Linked                              [ module(s) ]

obj\Debug\Library\StdDriver\src\adc.rel   [  ]
obj\Debug\Library\StdDriver\src\delay.rel
                                          [  ]
obj\Debug\Library\StdDriver\src\sys.rel   [  ]
obj\Debug\Library\StdDriver\src\uart.rel  [  ]
obj\Debug\SampleCode\RegBased\ADC_Simple\ADC_simple.rel
                                          [  ]


Libraries Linked                          [ object file ]

C:\Program Files\SDCC\bin\..\lib\small/liblong.lib
                                          [ _divulong.rel ]
C:\Program Files\SDCC\bin\..\lib\small/mcs51.lib
                                          [ crtclear.rel ]
C:\Program Files\SDCC\bin\..\lib\small/mcs51.lib
                                          [ crtxinit.rel ]
C:\Program Files\SDCC\bin\..\lib\small/liblong.lib
                                          [ _mullong.rel ]
C:\Program Files\SDCC\bin\..\lib\small/mcs51.lib
                                          [ crtxclear.rel ]
C:\Program Files\SDCC\bin\..\lib\small/libsdcc.lib
                                          [ vprintf.rel ]
C:\Program Files\SDCC\bin\..\lib\small/libsdcc.lib
                                          [ printf_large.rel ]
C:\Program Files\SDCC\bin\..\lib\small/mcs51.lib
                                          [ crtpagesfr.rel ]
C:\Program Files\SDCC\bin\..\lib\small/libsdcc.lib
                                          [ _strlen.rel ]
C:\Program Files\SDCC\bin\..\lib\small/libint.lib
                                          [ _mulint.rel ]
C:\Program Files\SDCC\bin\..\lib\small/mcs51.lib
                                          [ crtstart.rel ]
C:\Program Files\SDCC\bin\..\lib\small/libsdcc.lib
                                          [ _gptrget.rel ]
C:\Program Files\SDCC\bin\..\lib\small/libsdcc.lib
                                          [ _startup.rel ]
C:\Program Files\SDCC\bin\..\lib\small/libsdcc.lib
                                          [ _bp.rel ]

ASxxxx Linker V03.00 + NoICE + sdld,  page 67.

User Base Address Definitions

HOME = 0x0000
XSEG = 0x0001
PSEG = 0x0001
ISEG = 0x0000
BSEG = 0x0000

